
PWM_Inverted_Pendulum.elf:     file format elf32-avr

Sections:
Idx Name          Size      VMA       LMA       File off  Algn
  0 .data         00000036  00800100  00001d1e  00001db2  2**0
                  CONTENTS, ALLOC, LOAD, DATA
  1 .text         00001d1e  00000000  00000000  00000094  2**1
                  CONTENTS, ALLOC, LOAD, READONLY, CODE
  2 .bss          0000006c  00800136  00800136  00001de8  2**0
                  ALLOC
  3 .comment      0000005c  00000000  00000000  00001de8  2**0
                  CONTENTS, READONLY
  4 .debug_aranges 00000118  00000000  00000000  00001e44  2**0
                  CONTENTS, READONLY, DEBUGGING
  5 .debug_info   00001254  00000000  00000000  00001f5c  2**0
                  CONTENTS, READONLY, DEBUGGING
  6 .debug_abbrev 000005bd  00000000  00000000  000031b0  2**0
                  CONTENTS, READONLY, DEBUGGING
  7 .debug_line   0000064e  00000000  00000000  0000376d  2**0
                  CONTENTS, READONLY, DEBUGGING
  8 .debug_frame  00000404  00000000  00000000  00003dbc  2**2
                  CONTENTS, READONLY, DEBUGGING
  9 .debug_str    00000451  00000000  00000000  000041c0  2**0
                  CONTENTS, READONLY, DEBUGGING
 10 .debug_loc    000011e3  00000000  00000000  00004611  2**0
                  CONTENTS, READONLY, DEBUGGING
 11 .debug_ranges 000000e8  00000000  00000000  000057f4  2**0
                  CONTENTS, READONLY, DEBUGGING

Disassembly of section .text:

00000000 <__vectors>:
       0:	b1 c0       	rjmp	.+354    	; 0x164 <__ctors_end>
       2:	cb c0       	rjmp	.+406    	; 0x19a <__bad_interrupt>
       4:	ca c0       	rjmp	.+404    	; 0x19a <__bad_interrupt>
       6:	c9 c0       	rjmp	.+402    	; 0x19a <__bad_interrupt>
       8:	c8 c0       	rjmp	.+400    	; 0x19a <__bad_interrupt>
       a:	c7 c0       	rjmp	.+398    	; 0x19a <__bad_interrupt>
       c:	c6 c0       	rjmp	.+396    	; 0x19a <__bad_interrupt>
       e:	c5 c0       	rjmp	.+394    	; 0x19a <__bad_interrupt>
      10:	c4 c0       	rjmp	.+392    	; 0x19a <__bad_interrupt>
      12:	c3 c0       	rjmp	.+390    	; 0x19a <__bad_interrupt>
      14:	c2 c0       	rjmp	.+388    	; 0x19a <__bad_interrupt>
      16:	39 c3       	rjmp	.+1650   	; 0x68a <__vector_11>
      18:	c0 c0       	rjmp	.+384    	; 0x19a <__bad_interrupt>
      1a:	bf c0       	rjmp	.+382    	; 0x19a <__bad_interrupt>
      1c:	be c0       	rjmp	.+380    	; 0x19a <__bad_interrupt>
      1e:	bd c0       	rjmp	.+378    	; 0x19a <__bad_interrupt>
      20:	bc c0       	rjmp	.+376    	; 0x19a <__bad_interrupt>
      22:	bb c0       	rjmp	.+374    	; 0x19a <__bad_interrupt>
      24:	ba c0       	rjmp	.+372    	; 0x19a <__bad_interrupt>
      26:	b9 c0       	rjmp	.+370    	; 0x19a <__bad_interrupt>
      28:	b8 c0       	rjmp	.+368    	; 0x19a <__bad_interrupt>
      2a:	b7 c0       	rjmp	.+366    	; 0x19a <__bad_interrupt>
      2c:	b6 c0       	rjmp	.+364    	; 0x19a <__bad_interrupt>
      2e:	b5 c0       	rjmp	.+362    	; 0x19a <__bad_interrupt>
      30:	b4 c0       	rjmp	.+360    	; 0x19a <__bad_interrupt>
      32:	b3 c0       	rjmp	.+358    	; 0x19a <__bad_interrupt>
      34:	08 4a       	sbci	r16, 0xA8	; 168
      36:	d7 3b       	cpi	r29, 0xB7	; 183
      38:	3b ce       	rjmp	.-906    	; 0xfffffcb0 <__eeprom_end+0xff7efcb0>
      3a:	01 6e       	ori	r16, 0xE1	; 225
      3c:	84 bc       	out	0x24, r8	; 36
      3e:	bf fd       	.word	0xfdbf	; ????
      40:	c1 2f       	mov	r28, r17
      42:	3d 6c       	ori	r19, 0xCD	; 205
      44:	74 31       	cpi	r23, 0x14	; 20
      46:	9a bd       	out	0x2a, r25	; 42
      48:	56 83       	std	Z+6, r21	; 0x06
      4a:	3d da       	rcall	.-2950   	; 0xfffff4c6 <__eeprom_end+0xff7ef4c6>
      4c:	3d 00       	.word	0x003d	; ????
      4e:	c7 7f       	andi	r28, 0xF7	; 247
      50:	11 be       	out	0x31, r1	; 49
      52:	d9 e4       	ldi	r29, 0x49	; 73
      54:	bb 4c       	sbci	r27, 0xCB	; 203
      56:	3e 91       	ld	r19, -X
      58:	6b aa       	std	Y+51, r6	; 0x33
      5a:	aa be       	out	0x3a, r10	; 58
      5c:	00 00       	nop
      5e:	00 80       	ld	r0, Z
      60:	3f 00       	.word	0x003f	; ????

00000062 <__trampolines_end>:
      62:	6e 61       	ori	r22, 0x1E	; 30
      64:	6e 00       	.word	0x006e	; ????

00000066 <__c.2159>:
      66:	69 6e 66 00 00 40 7a 10 f3 5a 00 a0 72 4e 18 09     inf..@z..Z..rN..
      76:	00 10 a5 d4 e8 00 00 e8 76 48 17 00 00 e4 0b 54     ........vH.....T
      86:	02 00 00 ca 9a 3b 00 00 00 e1 f5 05 00 00 80 96     .....;..........
      96:	98 00 00 00 40 42 0f 00 00 00 a0 86 01 00 00 00     ....@B..........
      a6:	10 27 00 00 00 00 e8 03 00 00 00 00 64 00 00 00     .'..........d...
      b6:	00 00 0a 00 00 00 00 00 01 00 00 00 00 00 2c 76     ..............,v
      c6:	d8 88 dc 67 4f 08 23 df c1 df ae 59 e1 b1 b7 96     ...gO.#....Y....
      d6:	e5 e3 e4 53 c6 3a e6 51 99 76 96 e8 e6 c2 84 26     ...S.:.Q.v.....&
      e6:	eb 89 8c 9b 62 ed 40 7c 6f fc ef bc 9c 9f 40 f2     ....b.@|o.....@.
      f6:	ba a5 6f a5 f4 90 05 5a 2a f7 5c 93 6b 6c f9 67     ..o....Z*.\.kl.g
     106:	6d c1 1b fc e0 e4 0d 47 fe f5 20 e6 b5 00 d0 ed     m......G.. .....
     116:	90 2e 03 00 94 35 77 05 00 80 84 1e 08 00 00 20     .....5w........ 
     126:	4e 0a 00 00 00 c8 0c 33 33 33 33 0f 98 6e 12 83     N......3333..n..
     136:	11 41 ef 8d 21 14 89 3b e6 55 16 cf fe e6 db 18     .A..!..;.U......
     146:	d1 84 4b 38 1b f7 7c 1d 90 1d a4 bb e4 24 20 32     ..K8..|......$ 2
     156:	84 72 5e 22 81 00 c9 f1 24 ec a1 e5 3d 27           .r^"....$...='

00000164 <__ctors_end>:
     164:	11 24       	eor	r1, r1
     166:	1f be       	out	0x3f, r1	; 63
     168:	cf ef       	ldi	r28, 0xFF	; 255
     16a:	d4 e0       	ldi	r29, 0x04	; 4
     16c:	de bf       	out	0x3e, r29	; 62
     16e:	cd bf       	out	0x3d, r28	; 61

00000170 <__do_copy_data>:
     170:	11 e0       	ldi	r17, 0x01	; 1
     172:	a0 e0       	ldi	r26, 0x00	; 0
     174:	b1 e0       	ldi	r27, 0x01	; 1
     176:	ee e1       	ldi	r30, 0x1E	; 30
     178:	fd e1       	ldi	r31, 0x1D	; 29
     17a:	02 c0       	rjmp	.+4      	; 0x180 <__do_copy_data+0x10>
     17c:	05 90       	lpm	r0, Z+
     17e:	0d 92       	st	X+, r0
     180:	a6 33       	cpi	r26, 0x36	; 54
     182:	b1 07       	cpc	r27, r17
     184:	d9 f7       	brne	.-10     	; 0x17c <__do_copy_data+0xc>

00000186 <__do_clear_bss>:
     186:	21 e0       	ldi	r18, 0x01	; 1
     188:	a6 e3       	ldi	r26, 0x36	; 54
     18a:	b1 e0       	ldi	r27, 0x01	; 1
     18c:	01 c0       	rjmp	.+2      	; 0x190 <.do_clear_bss_start>

0000018e <.do_clear_bss_loop>:
     18e:	1d 92       	st	X+, r1

00000190 <.do_clear_bss_start>:
     190:	a2 3a       	cpi	r26, 0xA2	; 162
     192:	b2 07       	cpc	r27, r18
     194:	e1 f7       	brne	.-8      	; 0x18e <.do_clear_bss_loop>
     196:	39 d2       	rcall	.+1138   	; 0x60a <main>
     198:	c0 cd       	rjmp	.-1152   	; 0xfffffd1a <__eeprom_end+0xff7efd1a>

0000019a <__bad_interrupt>:
     19a:	32 cf       	rjmp	.-412    	; 0x0 <__vectors>

0000019c <mpu6050_readBytes>:
volatile uint8_t buffer[14];

/*
 * read bytes from chip register
 */
int8_t mpu6050_readBytes(uint8_t regAddr, uint8_t length, uint8_t *data) {
     19c:	df 92       	push	r13
     19e:	ef 92       	push	r14
     1a0:	ff 92       	push	r15
     1a2:	0f 93       	push	r16
     1a4:	1f 93       	push	r17
     1a6:	cf 93       	push	r28
     1a8:	df 93       	push	r29
     1aa:	18 2f       	mov	r17, r24
     1ac:	d6 2e       	mov	r13, r22
     1ae:	d4 2f       	mov	r29, r20
     1b0:	c5 2f       	mov	r28, r21
	uint8_t i = 0;
	int8_t count = 0;
	if(length > 0) {
     1b2:	66 23       	and	r22, r22
     1b4:	21 f1       	breq	.+72     	; 0x1fe <mpu6050_readBytes+0x62>
		//request register
		i2c_start(MPU6050_ADDR | I2C_WRITE);
     1b6:	80 ed       	ldi	r24, 0xD0	; 208
     1b8:	37 d5       	rcall	.+2670   	; 0xc28 <i2c_start>
		i2c_write(regAddr);
     1ba:	81 2f       	mov	r24, r17
     1bc:	8b d5       	rcall	.+2838   	; 0xcd4 <i2c_write>
	#else
		//round up by default
		__ticks_dc = (uint32_t)(ceil(fabs(__tmp)));
	#endif

	__builtin_avr_delay_cycles(__ticks_dc);
     1be:	83 e0       	ldi	r24, 0x03	; 3
     1c0:	8a 95       	dec	r24
     1c2:	f1 f7       	brne	.-4      	; 0x1c0 <mpu6050_readBytes+0x24>
     1c4:	00 00       	nop
		_delay_us(10);
		//read data
		i2c_start(MPU6050_ADDR | I2C_READ);
     1c6:	81 ed       	ldi	r24, 0xD1	; 209
     1c8:	2f d5       	rcall	.+2654   	; 0xc28 <i2c_start>
     1ca:	0d 2f       	mov	r16, r29
     1cc:	1c 2f       	mov	r17, r28
     1ce:	c0 e0       	ldi	r28, 0x00	; 0
     1d0:	d0 e0       	ldi	r29, 0x00	; 0
		for(i=0; i<length; i++) {
			count++;
			if(i==length-1)
     1d2:	ed 2c       	mov	r14, r13
     1d4:	f1 2c       	mov	r15, r1
     1d6:	e1 e0       	ldi	r30, 0x01	; 1
     1d8:	ee 1a       	sub	r14, r30
     1da:	f1 08       	sbc	r15, r1
     1dc:	ce 15       	cp	r28, r14
     1de:	df 05       	cpc	r29, r15
     1e0:	21 f4       	brne	.+8      	; 0x1ea <mpu6050_readBytes+0x4e>
				data[i] = i2c_readNak();
     1e2:	b3 d5       	rcall	.+2918   	; 0xd4a <i2c_readNak>
     1e4:	f8 01       	movw	r30, r16
     1e6:	80 83       	st	Z, r24
     1e8:	03 c0       	rjmp	.+6      	; 0x1f0 <mpu6050_readBytes+0x54>
			else
				data[i] = i2c_readAck();
     1ea:	95 d5       	rcall	.+2858   	; 0xd16 <i2c_readAck>
     1ec:	f8 01       	movw	r30, r16
     1ee:	80 83       	st	Z, r24
     1f0:	21 96       	adiw	r28, 0x01	; 1
     1f2:	0f 5f       	subi	r16, 0xFF	; 255
     1f4:	1f 4f       	sbci	r17, 0xFF	; 255
		i2c_start(MPU6050_ADDR | I2C_WRITE);
		i2c_write(regAddr);
		_delay_us(10);
		//read data
		i2c_start(MPU6050_ADDR | I2C_READ);
		for(i=0; i<length; i++) {
     1f6:	cd 15       	cp	r28, r13
     1f8:	88 f3       	brcs	.-30     	; 0x1dc <mpu6050_readBytes+0x40>
			if(i==length-1)
				data[i] = i2c_readNak();
			else
				data[i] = i2c_readAck();
		}
		i2c_stop();
     1fa:	5c d5       	rcall	.+2744   	; 0xcb4 <i2c_stop>
     1fc:	01 c0       	rjmp	.+2      	; 0x200 <mpu6050_readBytes+0x64>
/*
 * read bytes from chip register
 */
int8_t mpu6050_readBytes(uint8_t regAddr, uint8_t length, uint8_t *data) {
	uint8_t i = 0;
	int8_t count = 0;
     1fe:	d1 2c       	mov	r13, r1
				data[i] = i2c_readAck();
		}
		i2c_stop();
	}
	return count;
}
     200:	8d 2d       	mov	r24, r13
     202:	df 91       	pop	r29
     204:	cf 91       	pop	r28
     206:	1f 91       	pop	r17
     208:	0f 91       	pop	r16
     20a:	ff 90       	pop	r15
     20c:	ef 90       	pop	r14
     20e:	df 90       	pop	r13
     210:	08 95       	ret

00000212 <mpu6050_readByte>:

/*
 * read 1 byte from chip register
 */
int8_t mpu6050_readByte(uint8_t regAddr, uint8_t *data) {
     212:	ab 01       	movw	r20, r22
    return mpu6050_readBytes(regAddr, 1, data);
     214:	61 e0       	ldi	r22, 0x01	; 1
     216:	c2 df       	rcall	.-124    	; 0x19c <mpu6050_readBytes>
}
     218:	08 95       	ret

0000021a <mpu6050_writeBytes>:

/*
 * write bytes to chip register
 */
void mpu6050_writeBytes(uint8_t regAddr, uint8_t length, uint8_t* data) {
     21a:	ff 92       	push	r15
     21c:	0f 93       	push	r16
     21e:	1f 93       	push	r17
     220:	cf 93       	push	r28
     222:	df 93       	push	r29
     224:	c8 2f       	mov	r28, r24
     226:	06 2f       	mov	r16, r22
     228:	f4 2e       	mov	r15, r20
     22a:	15 2f       	mov	r17, r21
	if(length > 0) {
     22c:	66 23       	and	r22, r22
     22e:	69 f0       	breq	.+26     	; 0x24a <mpu6050_writeBytes+0x30>
		//write data
		i2c_start(MPU6050_ADDR | I2C_WRITE);
     230:	80 ed       	ldi	r24, 0xD0	; 208
     232:	fa d4       	rcall	.+2548   	; 0xc28 <i2c_start>
		i2c_write(regAddr); //reg
     234:	8c 2f       	mov	r24, r28
     236:	4e d5       	rcall	.+2716   	; 0xcd4 <i2c_write>
     238:	cf 2d       	mov	r28, r15
     23a:	d1 2f       	mov	r29, r17
		for (uint8_t i = 0; i < length; i++) {
     23c:	10 e0       	ldi	r17, 0x00	; 0
			i2c_write((uint8_t) data[i]);
     23e:	89 91       	ld	r24, Y+
     240:	49 d5       	rcall	.+2706   	; 0xcd4 <i2c_write>
void mpu6050_writeBytes(uint8_t regAddr, uint8_t length, uint8_t* data) {
	if(length > 0) {
		//write data
		i2c_start(MPU6050_ADDR | I2C_WRITE);
		i2c_write(regAddr); //reg
		for (uint8_t i = 0; i < length; i++) {
     242:	1f 5f       	subi	r17, 0xFF	; 255
     244:	10 13       	cpse	r17, r16
     246:	fb cf       	rjmp	.-10     	; 0x23e <mpu6050_writeBytes+0x24>
			i2c_write((uint8_t) data[i]);
		}
		i2c_stop();
     248:	35 d5       	rcall	.+2666   	; 0xcb4 <i2c_stop>
	}
}
     24a:	df 91       	pop	r29
     24c:	cf 91       	pop	r28
     24e:	1f 91       	pop	r17
     250:	0f 91       	pop	r16
     252:	ff 90       	pop	r15
     254:	08 95       	ret

00000256 <mpu6050_writeByte>:

/*
 * write 1 byte to chip register
 */
void mpu6050_writeByte(uint8_t regAddr, uint8_t data) {
     256:	cf 93       	push	r28
     258:	df 93       	push	r29
     25a:	1f 92       	push	r1
     25c:	cd b7       	in	r28, 0x3d	; 61
     25e:	de b7       	in	r29, 0x3e	; 62
     260:	69 83       	std	Y+1, r22	; 0x01
    return mpu6050_writeBytes(regAddr, 1, &data);
     262:	ae 01       	movw	r20, r28
     264:	4f 5f       	subi	r20, 0xFF	; 255
     266:	5f 4f       	sbci	r21, 0xFF	; 255
     268:	61 e0       	ldi	r22, 0x01	; 1
     26a:	d7 df       	rcall	.-82     	; 0x21a <mpu6050_writeBytes>
}
     26c:	0f 90       	pop	r0
     26e:	df 91       	pop	r29
     270:	cf 91       	pop	r28
     272:	08 95       	ret

00000274 <mpu6050_writeBits>:
}

/*
 * write bit/bits to chip register
 */
void mpu6050_writeBits(uint8_t regAddr, uint8_t bitStart, uint8_t length, uint8_t data) {
     274:	ef 92       	push	r14
     276:	ff 92       	push	r15
     278:	0f 93       	push	r16
     27a:	1f 93       	push	r17
     27c:	cf 93       	push	r28
     27e:	df 93       	push	r29
     280:	1f 92       	push	r1
     282:	cd b7       	in	r28, 0x3d	; 61
     284:	de b7       	in	r29, 0x3e	; 62
     286:	18 2f       	mov	r17, r24
     288:	e6 2e       	mov	r14, r22
     28a:	f4 2e       	mov	r15, r20
     28c:	02 2f       	mov	r16, r18
    //    xxx   args: bitStart=4, length=3
    // 00011100 mask byte
    // 10101111 original value (sample)
    // 10100011 original & ~mask
    // 10101011 masked | value
	if(length > 0) {
     28e:	44 23       	and	r20, r20
     290:	81 f1       	breq	.+96     	; 0x2f2 <mpu6050_writeBits+0x7e>
		uint8_t b = 0;
     292:	19 82       	std	Y+1, r1	; 0x01
		if (mpu6050_readByte(regAddr, &b) != 0) { //get current data
     294:	be 01       	movw	r22, r28
     296:	6f 5f       	subi	r22, 0xFF	; 255
     298:	7f 4f       	sbci	r23, 0xFF	; 255
     29a:	bb df       	rcall	.-138    	; 0x212 <mpu6050_readByte>
     29c:	88 23       	and	r24, r24
     29e:	49 f1       	breq	.+82     	; 0x2f2 <mpu6050_writeBits+0x7e>
			uint8_t mask = ((1 << length) - 1) << (bitStart - length + 1);
     2a0:	6e 2d       	mov	r22, r14
     2a2:	70 e0       	ldi	r23, 0x00	; 0
     2a4:	6f 19       	sub	r22, r15
     2a6:	71 09       	sbc	r23, r1
     2a8:	6f 5f       	subi	r22, 0xFF	; 255
     2aa:	7f 4f       	sbci	r23, 0xFF	; 255
     2ac:	e1 e0       	ldi	r30, 0x01	; 1
     2ae:	f0 e0       	ldi	r31, 0x00	; 0
     2b0:	af 01       	movw	r20, r30
     2b2:	02 c0       	rjmp	.+4      	; 0x2b8 <mpu6050_writeBits+0x44>
     2b4:	44 0f       	add	r20, r20
     2b6:	55 1f       	adc	r21, r21
     2b8:	fa 94       	dec	r15
     2ba:	e2 f7       	brpl	.-8      	; 0x2b4 <mpu6050_writeBits+0x40>
     2bc:	41 50       	subi	r20, 0x01	; 1
     2be:	51 09       	sbc	r21, r1
     2c0:	06 2e       	mov	r0, r22
     2c2:	02 c0       	rjmp	.+4      	; 0x2c8 <mpu6050_writeBits+0x54>
     2c4:	44 0f       	add	r20, r20
     2c6:	55 1f       	adc	r21, r21
     2c8:	0a 94       	dec	r0
     2ca:	e2 f7       	brpl	.-8      	; 0x2c4 <mpu6050_writeBits+0x50>
			data <<= (bitStart - length + 1); // shift data into correct position
     2cc:	20 2f       	mov	r18, r16
     2ce:	30 e0       	ldi	r19, 0x00	; 0
     2d0:	c9 01       	movw	r24, r18
     2d2:	02 c0       	rjmp	.+4      	; 0x2d8 <mpu6050_writeBits+0x64>
     2d4:	88 0f       	add	r24, r24
     2d6:	99 1f       	adc	r25, r25
     2d8:	6a 95       	dec	r22
     2da:	e2 f7       	brpl	.-8      	; 0x2d4 <mpu6050_writeBits+0x60>
     2dc:	bc 01       	movw	r22, r24
			data &= mask; // zero all non-important bits in data
			b &= ~(mask); // zero all important bits in existing byte
     2de:	94 2f       	mov	r25, r20
     2e0:	90 95       	com	r25
     2e2:	89 81       	ldd	r24, Y+1	; 0x01
     2e4:	89 23       	and	r24, r25
	if(length > 0) {
		uint8_t b = 0;
		if (mpu6050_readByte(regAddr, &b) != 0) { //get current data
			uint8_t mask = ((1 << length) - 1) << (bitStart - length + 1);
			data <<= (bitStart - length + 1); // shift data into correct position
			data &= mask; // zero all non-important bits in data
     2e6:	46 23       	and	r20, r22
			b &= ~(mask); // zero all important bits in existing byte
			b |= data; // combine data with existing byte
     2e8:	68 2f       	mov	r22, r24
     2ea:	64 2b       	or	r22, r20
     2ec:	69 83       	std	Y+1, r22	; 0x01
			mpu6050_writeByte(regAddr, b);
     2ee:	81 2f       	mov	r24, r17
     2f0:	b2 df       	rcall	.-156    	; 0x256 <mpu6050_writeByte>
		}
	}
}
     2f2:	0f 90       	pop	r0
     2f4:	df 91       	pop	r29
     2f6:	cf 91       	pop	r28
     2f8:	1f 91       	pop	r17
     2fa:	0f 91       	pop	r16
     2fc:	ff 90       	pop	r15
     2fe:	ef 90       	pop	r14
     300:	08 95       	ret

00000302 <mpu6050_writeBit>:

/*
 * write one bit to chip register
 */
void mpu6050_writeBit(uint8_t regAddr, uint8_t bitNum, uint8_t data) {
     302:	ff 92       	push	r15
     304:	0f 93       	push	r16
     306:	1f 93       	push	r17
     308:	cf 93       	push	r28
     30a:	df 93       	push	r29
     30c:	1f 92       	push	r1
     30e:	cd b7       	in	r28, 0x3d	; 61
     310:	de b7       	in	r29, 0x3e	; 62
     312:	18 2f       	mov	r17, r24
     314:	06 2f       	mov	r16, r22
     316:	f4 2e       	mov	r15, r20
    uint8_t b;
    mpu6050_readByte(regAddr, &b);
     318:	be 01       	movw	r22, r28
     31a:	6f 5f       	subi	r22, 0xFF	; 255
     31c:	7f 4f       	sbci	r23, 0xFF	; 255
     31e:	79 df       	rcall	.-270    	; 0x212 <mpu6050_readByte>
    b = (data != 0) ? (b | (1 << bitNum)) : (b & ~(1 << bitNum));
     320:	ff 20       	and	r15, r15
     322:	59 f0       	breq	.+22     	; 0x33a <mpu6050_writeBit+0x38>
     324:	21 e0       	ldi	r18, 0x01	; 1
     326:	30 e0       	ldi	r19, 0x00	; 0
     328:	b9 01       	movw	r22, r18
     32a:	02 c0       	rjmp	.+4      	; 0x330 <mpu6050_writeBit+0x2e>
     32c:	66 0f       	add	r22, r22
     32e:	77 1f       	adc	r23, r23
     330:	0a 95       	dec	r16
     332:	e2 f7       	brpl	.-8      	; 0x32c <mpu6050_writeBit+0x2a>
     334:	89 81       	ldd	r24, Y+1	; 0x01
     336:	68 2b       	or	r22, r24
     338:	0b c0       	rjmp	.+22     	; 0x350 <mpu6050_writeBit+0x4e>
     33a:	21 e0       	ldi	r18, 0x01	; 1
     33c:	30 e0       	ldi	r19, 0x00	; 0
     33e:	b9 01       	movw	r22, r18
     340:	02 c0       	rjmp	.+4      	; 0x346 <mpu6050_writeBit+0x44>
     342:	66 0f       	add	r22, r22
     344:	77 1f       	adc	r23, r23
     346:	0a 95       	dec	r16
     348:	e2 f7       	brpl	.-8      	; 0x342 <mpu6050_writeBit+0x40>
     34a:	60 95       	com	r22
     34c:	89 81       	ldd	r24, Y+1	; 0x01
     34e:	68 23       	and	r22, r24
     350:	69 83       	std	Y+1, r22	; 0x01
    mpu6050_writeByte(regAddr, b);
     352:	81 2f       	mov	r24, r17
     354:	80 df       	rcall	.-256    	; 0x256 <mpu6050_writeByte>
}
     356:	0f 90       	pop	r0
     358:	df 91       	pop	r29
     35a:	cf 91       	pop	r28
     35c:	1f 91       	pop	r17
     35e:	0f 91       	pop	r16
     360:	ff 90       	pop	r15
     362:	08 95       	ret

00000364 <mpu6050_setSleepDisabled>:

/*
 * set sleep disabled
 */
void mpu6050_setSleepDisabled() {
	mpu6050_writeBit(MPU6050_RA_PWR_MGMT_1, MPU6050_PWR1_SLEEP_BIT, 0);
     364:	40 e0       	ldi	r20, 0x00	; 0
     366:	66 e0       	ldi	r22, 0x06	; 6
     368:	8b e6       	ldi	r24, 0x6B	; 107
     36a:	cb df       	rcall	.-106    	; 0x302 <mpu6050_writeBit>
     36c:	08 95       	ret

0000036e <mpu6050_init>:
 * initialize the accel and gyro
 */
void mpu6050_init() {
	#if MPU6050_I2CINIT == 1
	//init i2c
	i2c_init();
     36e:	56 d4       	rcall	.+2220   	; 0xc1c <i2c_init>
     370:	83 e0       	ldi	r24, 0x03	; 3
     372:	8a 95       	dec	r24
     374:	f1 f7       	brne	.-4      	; 0x372 <mpu6050_init+0x4>
     376:	00 00       	nop
	#else
		//round up by default
		__ticks_dc = (uint32_t)(ceil(fabs(__tmp)));
	#endif

	__builtin_avr_delay_cycles(__ticks_dc);
     378:	87 ea       	ldi	r24, 0xA7	; 167
     37a:	91 e6       	ldi	r25, 0x61	; 97
     37c:	01 97       	sbiw	r24, 0x01	; 1
     37e:	f1 f7       	brne	.-4      	; 0x37c <mpu6050_init+0xe>
     380:	00 c0       	rjmp	.+0      	; 0x382 <mpu6050_init+0x14>
     382:	00 00       	nop

	//allow mpu6050 chip clocks to start up
	_delay_ms(100);

	//set sleep disabled
	mpu6050_setSleepDisabled();
     384:	ef df       	rcall	.-34     	; 0x364 <mpu6050_setSleepDisabled>
     386:	83 ec       	ldi	r24, 0xC3	; 195
     388:	99 e0       	ldi	r25, 0x09	; 9
     38a:	01 97       	sbiw	r24, 0x01	; 1
     38c:	f1 f7       	brne	.-4      	; 0x38a <mpu6050_init+0x1c>
     38e:	00 c0       	rjmp	.+0      	; 0x390 <mpu6050_init+0x22>
     390:	00 00       	nop
	_delay_ms(10);

	//set clock source
	//  it is highly recommended that the device be configured to use one of the gyroscopes (or an external clock source)
	//  as the clock reference for improved stability
	mpu6050_writeBits(MPU6050_RA_PWR_MGMT_1, MPU6050_PWR1_CLKSEL_BIT, MPU6050_PWR1_CLKSEL_LENGTH, MPU6050_CLOCK_PLL_YGYRO);
     392:	22 e0       	ldi	r18, 0x02	; 2
     394:	43 e0       	ldi	r20, 0x03	; 3
     396:	62 e0       	ldi	r22, 0x02	; 2
     398:	8b e6       	ldi	r24, 0x6B	; 107
     39a:	6c df       	rcall	.-296    	; 0x274 <mpu6050_writeBits>
	//set DLPF bandwidth to 42Hz
	mpu6050_writeBits(MPU6050_RA_CONFIG, MPU6050_CFG_DLPF_CFG_BIT, MPU6050_CFG_DLPF_CFG_LENGTH, MPU6050_DLPF_BW_256);
     39c:	20 e0       	ldi	r18, 0x00	; 0
     39e:	43 e0       	ldi	r20, 0x03	; 3
     3a0:	62 e0       	ldi	r22, 0x02	; 2
     3a2:	8a e1       	ldi	r24, 0x1A	; 26
     3a4:	67 df       	rcall	.-306    	; 0x274 <mpu6050_writeBits>
    //set sampe rate
	mpu6050_writeByte(MPU6050_RA_SMPLRT_DIV, 0); //1khz / (1 + 4) = 200Hz
     3a6:	60 e0       	ldi	r22, 0x00	; 0
     3a8:	89 e1       	ldi	r24, 0x19	; 25
     3aa:	55 df       	rcall	.-342    	; 0x256 <mpu6050_writeByte>
	//set gyro range
	mpu6050_writeBits(MPU6050_RA_GYRO_CONFIG, MPU6050_GCONFIG_FS_SEL_BIT, MPU6050_GCONFIG_FS_SEL_LENGTH, MPU6050_GYRO_FS);
     3ac:	20 e0       	ldi	r18, 0x00	; 0
     3ae:	42 e0       	ldi	r20, 0x02	; 2
     3b0:	64 e0       	ldi	r22, 0x04	; 4
     3b2:	8b e1       	ldi	r24, 0x1B	; 27
     3b4:	5f df       	rcall	.-322    	; 0x274 <mpu6050_writeBits>
	//set accel range
	mpu6050_writeBits(MPU6050_RA_ACCEL_CONFIG, MPU6050_ACONFIG_AFS_SEL_BIT, MPU6050_ACONFIG_AFS_SEL_LENGTH, MPU6050_ACCEL_FS);
     3b6:	20 e0       	ldi	r18, 0x00	; 0
     3b8:	42 e0       	ldi	r20, 0x02	; 2
     3ba:	64 e0       	ldi	r22, 0x04	; 4
     3bc:	8c e1       	ldi	r24, 0x1C	; 28
     3be:	5a df       	rcall	.-332    	; 0x274 <mpu6050_writeBits>
     3c0:	08 95       	ret

000003c2 <mpu6050_getRawData>:

//can not accept many request if we alreay have getattitude requests
/*
 * get raw data
 */
void mpu6050_getRawData(int16_t* ax, int16_t* ay, int16_t* az, int16_t* gx, int16_t* gy, int16_t* gz) {
     3c2:	8f 92       	push	r8
     3c4:	9f 92       	push	r9
     3c6:	af 92       	push	r10
     3c8:	bf 92       	push	r11
     3ca:	cf 92       	push	r12
     3cc:	df 92       	push	r13
     3ce:	ef 92       	push	r14
     3d0:	ff 92       	push	r15
     3d2:	0f 93       	push	r16
     3d4:	1f 93       	push	r17
     3d6:	cf 93       	push	r28
     3d8:	df 93       	push	r29
     3da:	4c 01       	movw	r8, r24
     3dc:	5b 01       	movw	r10, r22
     3de:	6a 01       	movw	r12, r20
     3e0:	e9 01       	movw	r28, r18
	mpu6050_readBytes(MPU6050_RA_ACCEL_XOUT_H, 14, (uint8_t *)buffer);
     3e2:	48 e4       	ldi	r20, 0x48	; 72
     3e4:	51 e0       	ldi	r21, 0x01	; 1
     3e6:	6e e0       	ldi	r22, 0x0E	; 14
     3e8:	8b e3       	ldi	r24, 0x3B	; 59
     3ea:	d8 de       	rcall	.-592    	; 0x19c <mpu6050_readBytes>

    *ax = (((int16_t)buffer[0]) << 8) | buffer[1];
     3ec:	20 91 48 01 	lds	r18, 0x0148
     3f0:	80 91 49 01 	lds	r24, 0x0149
     3f4:	90 e0       	ldi	r25, 0x00	; 0
     3f6:	92 2b       	or	r25, r18
     3f8:	f4 01       	movw	r30, r8
     3fa:	91 83       	std	Z+1, r25	; 0x01
     3fc:	80 83       	st	Z, r24
    *ay = (((int16_t)buffer[2]) << 8) | buffer[3];
     3fe:	20 91 4a 01 	lds	r18, 0x014A
     402:	80 91 4b 01 	lds	r24, 0x014B
     406:	90 e0       	ldi	r25, 0x00	; 0
     408:	92 2b       	or	r25, r18
     40a:	f5 01       	movw	r30, r10
     40c:	91 83       	std	Z+1, r25	; 0x01
     40e:	80 83       	st	Z, r24
    *az = (((int16_t)buffer[4]) << 8) | buffer[5];
     410:	20 91 4c 01 	lds	r18, 0x014C
     414:	80 91 4d 01 	lds	r24, 0x014D
     418:	90 e0       	ldi	r25, 0x00	; 0
     41a:	92 2b       	or	r25, r18
     41c:	f6 01       	movw	r30, r12
     41e:	91 83       	std	Z+1, r25	; 0x01
     420:	80 83       	st	Z, r24
    *gx = (((int16_t)buffer[8]) << 8) | buffer[9];
     422:	20 91 50 01 	lds	r18, 0x0150
     426:	80 91 51 01 	lds	r24, 0x0151
     42a:	90 e0       	ldi	r25, 0x00	; 0
     42c:	92 2b       	or	r25, r18
     42e:	99 83       	std	Y+1, r25	; 0x01
     430:	88 83       	st	Y, r24
    *gy = (((int16_t)buffer[10]) << 8) | buffer[11];
     432:	20 91 52 01 	lds	r18, 0x0152
     436:	80 91 53 01 	lds	r24, 0x0153
     43a:	90 e0       	ldi	r25, 0x00	; 0
     43c:	92 2b       	or	r25, r18
     43e:	f8 01       	movw	r30, r16
     440:	91 83       	std	Z+1, r25	; 0x01
     442:	80 83       	st	Z, r24
    *gz = (((int16_t)buffer[12]) << 8) | buffer[13];
     444:	20 91 54 01 	lds	r18, 0x0154
     448:	80 91 55 01 	lds	r24, 0x0155
     44c:	90 e0       	ldi	r25, 0x00	; 0
     44e:	92 2b       	or	r25, r18
     450:	f7 01       	movw	r30, r14
     452:	91 83       	std	Z+1, r25	; 0x01
     454:	80 83       	st	Z, r24
}
     456:	df 91       	pop	r29
     458:	cf 91       	pop	r28
     45a:	1f 91       	pop	r17
     45c:	0f 91       	pop	r16
     45e:	ff 90       	pop	r15
     460:	ef 90       	pop	r14
     462:	df 90       	pop	r13
     464:	cf 90       	pop	r12
     466:	bf 90       	pop	r11
     468:	af 90       	pop	r10
     46a:	9f 90       	pop	r9
     46c:	8f 90       	pop	r8
     46e:	08 95       	ret

00000470 <mpu6050_getConvData>:

/*
 * get raw data converted to g and deg/sec values
 */
void mpu6050_getConvData(double* axg, double* ayg, double* azg, double* gxds, double* gyds, double* gzds) {
     470:	2f 92       	push	r2
     472:	3f 92       	push	r3
     474:	4f 92       	push	r4
     476:	5f 92       	push	r5
     478:	6f 92       	push	r6
     47a:	7f 92       	push	r7
     47c:	8f 92       	push	r8
     47e:	9f 92       	push	r9
     480:	af 92       	push	r10
     482:	bf 92       	push	r11
     484:	cf 92       	push	r12
     486:	df 92       	push	r13
     488:	ef 92       	push	r14
     48a:	ff 92       	push	r15
     48c:	0f 93       	push	r16
     48e:	1f 93       	push	r17
     490:	cf 93       	push	r28
     492:	df 93       	push	r29
     494:	cd b7       	in	r28, 0x3d	; 61
     496:	de b7       	in	r29, 0x3e	; 62
     498:	2c 97       	sbiw	r28, 0x0c	; 12
     49a:	0f b6       	in	r0, 0x3f	; 63
     49c:	f8 94       	cli
     49e:	de bf       	out	0x3e, r29	; 62
     4a0:	0f be       	out	0x3f, r0	; 63
     4a2:	cd bf       	out	0x3d, r28	; 61
     4a4:	3c 01       	movw	r6, r24
     4a6:	4b 01       	movw	r8, r22
     4a8:	5a 01       	movw	r10, r20
     4aa:	69 01       	movw	r12, r18
     4ac:	28 01       	movw	r4, r16
     4ae:	17 01       	movw	r2, r14
	int16_t ax = 0;
     4b0:	1a 82       	std	Y+2, r1	; 0x02
     4b2:	19 82       	std	Y+1, r1	; 0x01
	int16_t ay = 0;
     4b4:	1c 82       	std	Y+4, r1	; 0x04
     4b6:	1b 82       	std	Y+3, r1	; 0x03
	int16_t az = 0;
     4b8:	1e 82       	std	Y+6, r1	; 0x06
     4ba:	1d 82       	std	Y+5, r1	; 0x05
	int16_t gx = 0;
     4bc:	18 86       	std	Y+8, r1	; 0x08
     4be:	1f 82       	std	Y+7, r1	; 0x07
	int16_t gy = 0;
     4c0:	1a 86       	std	Y+10, r1	; 0x0a
     4c2:	19 86       	std	Y+9, r1	; 0x09
	int16_t gz = 0;
     4c4:	1c 86       	std	Y+12, r1	; 0x0c
     4c6:	1b 86       	std	Y+11, r1	; 0x0b
	mpu6050_getRawData(&ax, &ay, &az, &gx, &gy, &gz);
     4c8:	ce 01       	movw	r24, r28
     4ca:	0b 96       	adiw	r24, 0x0b	; 11
     4cc:	7c 01       	movw	r14, r24
     4ce:	8e 01       	movw	r16, r28
     4d0:	07 5f       	subi	r16, 0xF7	; 247
     4d2:	1f 4f       	sbci	r17, 0xFF	; 255
     4d4:	9e 01       	movw	r18, r28
     4d6:	29 5f       	subi	r18, 0xF9	; 249
     4d8:	3f 4f       	sbci	r19, 0xFF	; 255
     4da:	ae 01       	movw	r20, r28
     4dc:	4b 5f       	subi	r20, 0xFB	; 251
     4de:	5f 4f       	sbci	r21, 0xFF	; 255
     4e0:	be 01       	movw	r22, r28
     4e2:	6d 5f       	subi	r22, 0xFD	; 253
     4e4:	7f 4f       	sbci	r23, 0xFF	; 255
     4e6:	0a 97       	sbiw	r24, 0x0a	; 10
     4e8:	6c df       	rcall	.-296    	; 0x3c2 <mpu6050_getRawData>

	#if MPU6050_CALIBRATEDACCGYRO == 1
    *axg = (double)(ax-MPU6050_AXOFFSET)/MPU6050_AXGAIN;
     4ea:	69 81       	ldd	r22, Y+1	; 0x01
     4ec:	7a 81       	ldd	r23, Y+2	; 0x02
     4ee:	88 27       	eor	r24, r24
     4f0:	77 fd       	sbrc	r23, 7
     4f2:	80 95       	com	r24
     4f4:	98 2f       	mov	r25, r24
     4f6:	a9 d5       	rcall	.+2898   	; 0x104a <__floatsisf>
     4f8:	20 e0       	ldi	r18, 0x00	; 0
     4fa:	30 e0       	ldi	r19, 0x00	; 0
     4fc:	40 e8       	ldi	r20, 0x80	; 128
     4fe:	58 e3       	ldi	r21, 0x38	; 56
     500:	84 d6       	rcall	.+3336   	; 0x120a <__mulsf3>
     502:	f3 01       	movw	r30, r6
     504:	60 83       	st	Z, r22
     506:	71 83       	std	Z+1, r23	; 0x01
     508:	82 83       	std	Z+2, r24	; 0x02
     50a:	93 83       	std	Z+3, r25	; 0x03
    *ayg = (double)(ay-MPU6050_AYOFFSET)/MPU6050_AYGAIN;
     50c:	6b 81       	ldd	r22, Y+3	; 0x03
     50e:	7c 81       	ldd	r23, Y+4	; 0x04
     510:	88 27       	eor	r24, r24
     512:	77 fd       	sbrc	r23, 7
     514:	80 95       	com	r24
     516:	98 2f       	mov	r25, r24
     518:	98 d5       	rcall	.+2864   	; 0x104a <__floatsisf>
     51a:	20 e0       	ldi	r18, 0x00	; 0
     51c:	30 e0       	ldi	r19, 0x00	; 0
     51e:	40 e8       	ldi	r20, 0x80	; 128
     520:	58 e3       	ldi	r21, 0x38	; 56
     522:	73 d6       	rcall	.+3302   	; 0x120a <__mulsf3>
     524:	f4 01       	movw	r30, r8
     526:	60 83       	st	Z, r22
     528:	71 83       	std	Z+1, r23	; 0x01
     52a:	82 83       	std	Z+2, r24	; 0x02
     52c:	93 83       	std	Z+3, r25	; 0x03
    *azg = (double)(az-MPU6050_AZOFFSET)/MPU6050_AZGAIN;
     52e:	6d 81       	ldd	r22, Y+5	; 0x05
     530:	7e 81       	ldd	r23, Y+6	; 0x06
     532:	88 27       	eor	r24, r24
     534:	77 fd       	sbrc	r23, 7
     536:	80 95       	com	r24
     538:	98 2f       	mov	r25, r24
     53a:	87 d5       	rcall	.+2830   	; 0x104a <__floatsisf>
     53c:	20 e0       	ldi	r18, 0x00	; 0
     53e:	30 e0       	ldi	r19, 0x00	; 0
     540:	40 e8       	ldi	r20, 0x80	; 128
     542:	58 e3       	ldi	r21, 0x38	; 56
     544:	62 d6       	rcall	.+3268   	; 0x120a <__mulsf3>
     546:	f5 01       	movw	r30, r10
     548:	60 83       	st	Z, r22
     54a:	71 83       	std	Z+1, r23	; 0x01
     54c:	82 83       	std	Z+2, r24	; 0x02
     54e:	93 83       	std	Z+3, r25	; 0x03
    *gxds = (double)(gx-MPU6050_GXOFFSET)/MPU6050_GXGAIN;
     550:	6f 81       	ldd	r22, Y+7	; 0x07
     552:	78 85       	ldd	r23, Y+8	; 0x08
     554:	88 27       	eor	r24, r24
     556:	77 fd       	sbrc	r23, 7
     558:	80 95       	com	r24
     55a:	98 2f       	mov	r25, r24
     55c:	76 d5       	rcall	.+2796   	; 0x104a <__floatsisf>
     55e:	20 e0       	ldi	r18, 0x00	; 0
     560:	30 e0       	ldi	r19, 0x00	; 0
     562:	43 e0       	ldi	r20, 0x03	; 3
     564:	53 e4       	ldi	r21, 0x43	; 67
     566:	d6 d4       	rcall	.+2476   	; 0xf14 <__divsf3>
     568:	f6 01       	movw	r30, r12
     56a:	60 83       	st	Z, r22
     56c:	71 83       	std	Z+1, r23	; 0x01
     56e:	82 83       	std	Z+2, r24	; 0x02
     570:	93 83       	std	Z+3, r25	; 0x03
	*gyds = (double)(gy-MPU6050_GYOFFSET)/MPU6050_GYGAIN;
     572:	69 85       	ldd	r22, Y+9	; 0x09
     574:	7a 85       	ldd	r23, Y+10	; 0x0a
     576:	88 27       	eor	r24, r24
     578:	77 fd       	sbrc	r23, 7
     57a:	80 95       	com	r24
     57c:	98 2f       	mov	r25, r24
     57e:	65 d5       	rcall	.+2762   	; 0x104a <__floatsisf>
     580:	20 e0       	ldi	r18, 0x00	; 0
     582:	30 e0       	ldi	r19, 0x00	; 0
     584:	43 e0       	ldi	r20, 0x03	; 3
     586:	53 e4       	ldi	r21, 0x43	; 67
     588:	c5 d4       	rcall	.+2442   	; 0xf14 <__divsf3>
     58a:	f2 01       	movw	r30, r4
     58c:	60 83       	st	Z, r22
     58e:	71 83       	std	Z+1, r23	; 0x01
     590:	82 83       	std	Z+2, r24	; 0x02
     592:	93 83       	std	Z+3, r25	; 0x03
	*gzds = (double)(gz-MPU6050_GZOFFSET)/MPU6050_GZGAIN;
     594:	6b 85       	ldd	r22, Y+11	; 0x0b
     596:	7c 85       	ldd	r23, Y+12	; 0x0c
     598:	88 27       	eor	r24, r24
     59a:	77 fd       	sbrc	r23, 7
     59c:	80 95       	com	r24
     59e:	98 2f       	mov	r25, r24
     5a0:	54 d5       	rcall	.+2728   	; 0x104a <__floatsisf>
     5a2:	20 e0       	ldi	r18, 0x00	; 0
     5a4:	30 e0       	ldi	r19, 0x00	; 0
     5a6:	43 e0       	ldi	r20, 0x03	; 3
     5a8:	53 e4       	ldi	r21, 0x43	; 67
     5aa:	b4 d4       	rcall	.+2408   	; 0xf14 <__divsf3>
     5ac:	f1 01       	movw	r30, r2
     5ae:	60 83       	st	Z, r22
     5b0:	71 83       	std	Z+1, r23	; 0x01
     5b2:	82 83       	std	Z+2, r24	; 0x02
     5b4:	93 83       	std	Z+3, r25	; 0x03
    *azg = (double)(az)/MPU6050_AGAIN;
    *gxds = (double)(gx)/MPU6050_GGAIN;
	*gyds = (double)(gy)/MPU6050_GGAIN;
	*gzds = (double)(gz)/MPU6050_GGAIN;
	#endif
}
     5b6:	2c 96       	adiw	r28, 0x0c	; 12
     5b8:	0f b6       	in	r0, 0x3f	; 63
     5ba:	f8 94       	cli
     5bc:	de bf       	out	0x3e, r29	; 62
     5be:	0f be       	out	0x3f, r0	; 63
     5c0:	cd bf       	out	0x3d, r28	; 61
     5c2:	df 91       	pop	r29
     5c4:	cf 91       	pop	r28
     5c6:	1f 91       	pop	r17
     5c8:	0f 91       	pop	r16
     5ca:	ff 90       	pop	r15
     5cc:	ef 90       	pop	r14
     5ce:	df 90       	pop	r13
     5d0:	cf 90       	pop	r12
     5d2:	bf 90       	pop	r11
     5d4:	af 90       	pop	r10
     5d6:	9f 90       	pop	r9
     5d8:	8f 90       	pop	r8
     5da:	7f 90       	pop	r7
     5dc:	6f 90       	pop	r6
     5de:	5f 90       	pop	r5
     5e0:	4f 90       	pop	r4
     5e2:	3f 90       	pop	r3
     5e4:	2f 90       	pop	r2
     5e6:	08 95       	ret

000005e8 <uart_putchar>:
}

// USART Functions

static int uart_putchar(char c, FILE *stream)
{
     5e8:	cf 93       	push	r28
     5ea:	c8 2f       	mov	r28, r24
	if (c == '\n') uart_putchar('\r', stream);
     5ec:	8a 30       	cpi	r24, 0x0A	; 10
     5ee:	11 f4       	brne	.+4      	; 0x5f4 <uart_putchar+0xc>
     5f0:	8d e0       	ldi	r24, 0x0D	; 13
     5f2:	fa df       	rcall	.-12     	; 0x5e8 <uart_putchar>
	
	loop_until_bit_is_set(UCSR0A, UDRE0);
     5f4:	e0 ec       	ldi	r30, 0xC0	; 192
     5f6:	f0 e0       	ldi	r31, 0x00	; 0
     5f8:	90 81       	ld	r25, Z
     5fa:	95 ff       	sbrs	r25, 5
     5fc:	fd cf       	rjmp	.-6      	; 0x5f8 <uart_putchar+0x10>
	UDR0 = c;
     5fe:	c0 93 c6 00 	sts	0x00C6, r28
	
	return 0;
}
     602:	80 e0       	ldi	r24, 0x00	; 0
     604:	90 e0       	ldi	r25, 0x00	; 0
     606:	cf 91       	pop	r28
     608:	08 95       	ret

0000060a <main>:


int main (void)
{
	//USART Setup
	UBRR0H = MYUBRR >> 8;
     60a:	10 92 c5 00 	sts	0x00C5, r1
	UBRR0L = MYUBRR;
     60e:	8c e0       	ldi	r24, 0x0C	; 12
     610:	80 93 c4 00 	sts	0x00C4, r24
	UCSR0B = (1<<RXEN0)|(1<<TXEN0);
     614:	88 e1       	ldi	r24, 0x18	; 24
     616:	80 93 c1 00 	sts	0x00C1, r24
	stdout = &mystdout; //Required for printf init
     61a:	80 e0       	ldi	r24, 0x00	; 0
     61c:	91 e0       	ldi	r25, 0x01	; 1
     61e:	90 93 9f 01 	sts	0x019F, r25
     622:	80 93 9e 01 	sts	0x019E, r24

	DDRD=0b10000010; //Set Output Port for USART
     626:	82 e8       	ldi	r24, 0x82	; 130
     628:	8a b9       	out	0x0a, r24	; 10
	
	
	// Initialize TWI
	
	mpu6050_init();
     62a:	a1 de       	rcall	.-702    	; 0x36e <mpu6050_init>

/// Activate Output Pins
DDRC |= (1 << 3)|(1 << 2)|(1 << 1)|(1 << 0);  //activate a clock measurement pin for debugging
     62c:	87 b1       	in	r24, 0x07	; 7
     62e:	8f 60       	ori	r24, 0x0F	; 15
     630:	87 b9       	out	0x07, r24	; 7

//Port D Activat OC2B, OC0B, OC0A
DDRD  |= (1 << PORTD3)|(1 << PORTD5)|(1 << PORTD6); //set data direction 
     632:	8a b1       	in	r24, 0x0a	; 10
     634:	88 66       	ori	r24, 0x68	; 104
     636:	8a b9       	out	0x0a, r24	; 10
//Port B Activate OC1A, OC2A
DDRB  |= (1 >> PORTB1)|(1 << PORTB3);  //set data direction 
     638:	23 9a       	sbi	0x04, 3	; 4

PORTD |= (1 << PORTD5)|(1 << PORTD6); //activate pins
     63a:	8b b1       	in	r24, 0x0b	; 11
     63c:	80 66       	ori	r24, 0x60	; 96
     63e:	8b b9       	out	0x0b, r24	; 11
PORTB |= (1 >> PORTB1)|(1 << PORTB3);  //activate pins
     640:	2b 9a       	sbi	0x05, 3	; 5
 

// Interrupt Timer to Timer 1 (16-bit resolution)

TCCR1A |= (1 << COM1A1);                       //sets Timer 1 to CTC mode using OCR1A as TOP of counter
     642:	e0 e8       	ldi	r30, 0x80	; 128
     644:	f0 e0       	ldi	r31, 0x00	; 0
     646:	80 81       	ld	r24, Z
     648:	80 68       	ori	r24, 0x80	; 128
     64a:	80 83       	st	Z, r24
TCCR1B |= (1 << WGM12);                        // 
     64c:	e1 e8       	ldi	r30, 0x81	; 129
     64e:	f0 e0       	ldi	r31, 0x00	; 0
     650:	80 81       	ld	r24, Z
     652:	88 60       	ori	r24, 0x08	; 8
     654:	80 83       	st	Z, r24
TIMSK1 |= (1 << OCIE1A);                       // Enable CTC interrupt
     656:	ef e6       	ldi	r30, 0x6F	; 111
     658:	f0 e0       	ldi	r31, 0x00	; 0
     65a:	80 81       	ld	r24, Z
     65c:	82 60       	ori	r24, 0x02	; 2
     65e:	80 83       	st	Z, r24
sei();                                         // Enable global interrupts
     660:	78 94       	sei
OCR1A = 100;                                   //This sets frequency of interrupt  
     662:	84 e6       	ldi	r24, 0x64	; 100
     664:	90 e0       	ldi	r25, 0x00	; 0
     666:	90 93 89 00 	sts	0x0089, r25
     66a:	80 93 88 00 	sts	0x0088, r24
TCCR1B |=(1 << CS10)|(0 << CS11)|(1 << CS12);  // sets the prescaler on the clock frequency to 1024
     66e:	e1 e8       	ldi	r30, 0x81	; 129
     670:	f0 e0       	ldi	r31, 0x00	; 0
     672:	80 81       	ld	r24, Z
     674:	85 60       	ori	r24, 0x05	; 5
     676:	80 83       	st	Z, r24
////  Target Frequency =  F CPU/(2*Prescale*OCR1A) - 1
////  For OCR1A = 100,  Target Frequency = 4.88 Hz

// PWM Timer set to Timer 0 (8-bit resolution)  ** Timer 0 and Timer 1 share the set prescale value

TCCR0A |= (1 << COM0A1)|(0 << COM0A0)|(1 << COM0B1)|(0 << COM0B0)|(1 << WGM00)|(0 << WGM01);//Setting up Fast PWM with OCR0A and OCROB as compare registers
     678:	84 b5       	in	r24, 0x24	; 36
     67a:	81 6a       	ori	r24, 0xA1	; 161
     67c:	84 bd       	out	0x24, r24	; 36
TCCR0B |= (0 << WGM02)|(1 << CS02)|(0 << CS01)|(0 << CS00);  // Defines Fast PWM and activates timer
     67e:	85 b5       	in	r24, 0x25	; 37
     680:	84 60       	ori	r24, 0x04	; 4
     682:	85 bd       	out	0x25, r24	; 37

OCR0A = 100;                               // Sets value to compare give a 4.8 Hz PWM cycle
     684:	84 e6       	ldi	r24, 0x64	; 100
     686:	87 bd       	out	0x27, r24	; 39
     688:	ff cf       	rjmp	.-2      	; 0x688 <main+0x7e>

0000068a <__vector_11>:
	//printf("tcnt0 %d; \n", TCNT0);
	}
}

ISR(TIMER1_COMPA_vect)  //runs an interupt comparing timer to OCR1A
{
     68a:	1f 92       	push	r1
     68c:	0f 92       	push	r0
     68e:	0f b6       	in	r0, 0x3f	; 63
     690:	0f 92       	push	r0
     692:	11 24       	eor	r1, r1
     694:	4f 92       	push	r4
     696:	5f 92       	push	r5
     698:	6f 92       	push	r6
     69a:	7f 92       	push	r7
     69c:	8f 92       	push	r8
     69e:	9f 92       	push	r9
     6a0:	af 92       	push	r10
     6a2:	bf 92       	push	r11
     6a4:	cf 92       	push	r12
     6a6:	df 92       	push	r13
     6a8:	ef 92       	push	r14
     6aa:	ff 92       	push	r15
     6ac:	0f 93       	push	r16
     6ae:	1f 93       	push	r17
     6b0:	2f 93       	push	r18
     6b2:	3f 93       	push	r19
     6b4:	4f 93       	push	r20
     6b6:	5f 93       	push	r21
     6b8:	6f 93       	push	r22
     6ba:	7f 93       	push	r23
     6bc:	8f 93       	push	r24
     6be:	9f 93       	push	r25
     6c0:	af 93       	push	r26
     6c2:	bf 93       	push	r27
     6c4:	ef 93       	push	r30
     6c6:	ff 93       	push	r31
     6c8:	cf 93       	push	r28
     6ca:	df 93       	push	r29
     6cc:	cd b7       	in	r28, 0x3d	; 61
     6ce:	de b7       	in	r29, 0x3e	; 62
     6d0:	68 97       	sbiw	r28, 0x18	; 24
     6d2:	de bf       	out	0x3e, r29	; 62
     6d4:	cd bf       	out	0x3d, r28	; 61
	
	PORTC ^= (1 << 0);// Debug toggle switch for interupt frequency check
     6d6:	98 b1       	in	r25, 0x08	; 8
     6d8:	81 e0       	ldi	r24, 0x01	; 1
     6da:	89 27       	eor	r24, r25
     6dc:	88 b9       	out	0x08, r24	; 8
	
	mpu6050_getConvData(&aXg,&aYg,&aZg,&gXds,&gYds,&gZds);  //reads in accel and gyro data and apply sensitivity conversion and stores in addressed variables
     6de:	0f 2e       	mov	r0, r31
     6e0:	f8 e8       	ldi	r31, 0x88	; 136
     6e2:	ef 2e       	mov	r14, r31
     6e4:	f1 e0       	ldi	r31, 0x01	; 1
     6e6:	ff 2e       	mov	r15, r31
     6e8:	f0 2d       	mov	r31, r0
     6ea:	04 e7       	ldi	r16, 0x74	; 116
     6ec:	11 e0       	ldi	r17, 0x01	; 1
     6ee:	20 e7       	ldi	r18, 0x70	; 112
     6f0:	31 e0       	ldi	r19, 0x01	; 1
     6f2:	4a e5       	ldi	r20, 0x5A	; 90
     6f4:	51 e0       	ldi	r21, 0x01	; 1
     6f6:	66 e6       	ldi	r22, 0x66	; 102
     6f8:	71 e0       	ldi	r23, 0x01	; 1
     6fa:	86 e5       	ldi	r24, 0x56	; 86
     6fc:	91 e0       	ldi	r25, 0x01	; 1
     6fe:	b8 de       	rcall	.-656    	; 0x470 <mpu6050_getConvData>
	
	
	//printf("   %f;   %f;   %f;\n   %f;   %f;   %f;\n\n",aXg,aYg,aZg,gXds,gYds,gZds);
	//_delay_ms(150);
	
	X = gXds*DT/2+X*DT/2-Xacc;
     700:	60 91 36 01 	lds	r22, 0x0136
     704:	70 91 37 01 	lds	r23, 0x0137
     708:	88 27       	eor	r24, r24
     70a:	77 fd       	sbrc	r23, 7
     70c:	80 95       	com	r24
     70e:	98 2f       	mov	r25, r24
     710:	9c d4       	rcall	.+2360   	; 0x104a <__floatsisf>
     712:	6b 01       	movw	r12, r22
     714:	7c 01       	movw	r14, r24
     716:	20 91 70 01 	lds	r18, 0x0170
     71a:	30 91 71 01 	lds	r19, 0x0171
     71e:	40 91 72 01 	lds	r20, 0x0172
     722:	50 91 73 01 	lds	r21, 0x0173
     726:	71 d5       	rcall	.+2786   	; 0x120a <__mulsf3>
     728:	20 e0       	ldi	r18, 0x00	; 0
     72a:	30 e0       	ldi	r19, 0x00	; 0
     72c:	40 e0       	ldi	r20, 0x00	; 0
     72e:	5f e3       	ldi	r21, 0x3F	; 63
     730:	6c d5       	rcall	.+2776   	; 0x120a <__mulsf3>
     732:	4b 01       	movw	r8, r22
     734:	5c 01       	movw	r10, r24
     736:	20 91 98 01 	lds	r18, 0x0198
     73a:	30 91 99 01 	lds	r19, 0x0199
     73e:	40 91 9a 01 	lds	r20, 0x019A
     742:	50 91 9b 01 	lds	r21, 0x019B
     746:	c7 01       	movw	r24, r14
     748:	b6 01       	movw	r22, r12
     74a:	5f d5       	rcall	.+2750   	; 0x120a <__mulsf3>
     74c:	20 e0       	ldi	r18, 0x00	; 0
     74e:	30 e0       	ldi	r19, 0x00	; 0
     750:	40 e0       	ldi	r20, 0x00	; 0
     752:	5f e3       	ldi	r21, 0x3F	; 63
     754:	5a d5       	rcall	.+2740   	; 0x120a <__mulsf3>
     756:	9b 01       	movw	r18, r22
     758:	ac 01       	movw	r20, r24
     75a:	c5 01       	movw	r24, r10
     75c:	b4 01       	movw	r22, r8
     75e:	10 d3       	rcall	.+1568   	; 0xd80 <__addsf3>
     760:	20 91 94 01 	lds	r18, 0x0194
     764:	30 91 95 01 	lds	r19, 0x0195
     768:	40 91 96 01 	lds	r20, 0x0196
     76c:	50 91 97 01 	lds	r21, 0x0197
     770:	06 d3       	rcall	.+1548   	; 0xd7e <__subsf3>
     772:	69 83       	std	Y+1, r22	; 0x01
     774:	7a 83       	std	Y+2, r23	; 0x02
     776:	8b 83       	std	Y+3, r24	; 0x03
     778:	9c 83       	std	Y+4, r25	; 0x04
     77a:	60 93 98 01 	sts	0x0198, r22
     77e:	70 93 99 01 	sts	0x0199, r23
     782:	80 93 9a 01 	sts	0x019A, r24
     786:	90 93 9b 01 	sts	0x019B, r25
	Y = gYds*DT/2+Y*DT/2-Yacc;
     78a:	20 91 74 01 	lds	r18, 0x0174
     78e:	30 91 75 01 	lds	r19, 0x0175
     792:	40 91 76 01 	lds	r20, 0x0176
     796:	50 91 77 01 	lds	r21, 0x0177
     79a:	c7 01       	movw	r24, r14
     79c:	b6 01       	movw	r22, r12
     79e:	35 d5       	rcall	.+2666   	; 0x120a <__mulsf3>
     7a0:	20 e0       	ldi	r18, 0x00	; 0
     7a2:	30 e0       	ldi	r19, 0x00	; 0
     7a4:	40 e0       	ldi	r20, 0x00	; 0
     7a6:	5f e3       	ldi	r21, 0x3F	; 63
     7a8:	30 d5       	rcall	.+2656   	; 0x120a <__mulsf3>
     7aa:	4b 01       	movw	r8, r22
     7ac:	5c 01       	movw	r10, r24
     7ae:	20 91 62 01 	lds	r18, 0x0162
     7b2:	30 91 63 01 	lds	r19, 0x0163
     7b6:	40 91 64 01 	lds	r20, 0x0164
     7ba:	50 91 65 01 	lds	r21, 0x0165
     7be:	c7 01       	movw	r24, r14
     7c0:	b6 01       	movw	r22, r12
     7c2:	23 d5       	rcall	.+2630   	; 0x120a <__mulsf3>
     7c4:	20 e0       	ldi	r18, 0x00	; 0
     7c6:	30 e0       	ldi	r19, 0x00	; 0
     7c8:	40 e0       	ldi	r20, 0x00	; 0
     7ca:	5f e3       	ldi	r21, 0x3F	; 63
     7cc:	1e d5       	rcall	.+2620   	; 0x120a <__mulsf3>
     7ce:	9b 01       	movw	r18, r22
     7d0:	ac 01       	movw	r20, r24
     7d2:	c5 01       	movw	r24, r10
     7d4:	b4 01       	movw	r22, r8
     7d6:	d4 d2       	rcall	.+1448   	; 0xd80 <__addsf3>
     7d8:	20 91 6a 01 	lds	r18, 0x016A
     7dc:	30 91 6b 01 	lds	r19, 0x016B
     7e0:	40 91 6c 01 	lds	r20, 0x016C
     7e4:	50 91 6d 01 	lds	r21, 0x016D
     7e8:	ca d2       	rcall	.+1428   	; 0xd7e <__subsf3>
     7ea:	6d 83       	std	Y+5, r22	; 0x05
     7ec:	7e 83       	std	Y+6, r23	; 0x06
     7ee:	8f 83       	std	Y+7, r24	; 0x07
     7f0:	98 87       	std	Y+8, r25	; 0x08
     7f2:	60 93 62 01 	sts	0x0162, r22
     7f6:	70 93 63 01 	sts	0x0163, r23
     7fa:	80 93 64 01 	sts	0x0164, r24
     7fe:	90 93 65 01 	sts	0x0165, r25
	Z = gZds*DT/2+Z*DT/2-Zacc;
     802:	20 91 88 01 	lds	r18, 0x0188
     806:	30 91 89 01 	lds	r19, 0x0189
     80a:	40 91 8a 01 	lds	r20, 0x018A
     80e:	50 91 8b 01 	lds	r21, 0x018B
     812:	c7 01       	movw	r24, r14
     814:	b6 01       	movw	r22, r12
     816:	f9 d4       	rcall	.+2546   	; 0x120a <__mulsf3>
     818:	20 e0       	ldi	r18, 0x00	; 0
     81a:	30 e0       	ldi	r19, 0x00	; 0
     81c:	40 e0       	ldi	r20, 0x00	; 0
     81e:	5f e3       	ldi	r21, 0x3F	; 63
     820:	f4 d4       	rcall	.+2536   	; 0x120a <__mulsf3>
     822:	4b 01       	movw	r8, r22
     824:	5c 01       	movw	r10, r24
     826:	20 91 80 01 	lds	r18, 0x0180
     82a:	30 91 81 01 	lds	r19, 0x0181
     82e:	40 91 82 01 	lds	r20, 0x0182
     832:	50 91 83 01 	lds	r21, 0x0183
     836:	c7 01       	movw	r24, r14
     838:	b6 01       	movw	r22, r12
     83a:	e7 d4       	rcall	.+2510   	; 0x120a <__mulsf3>
     83c:	20 e0       	ldi	r18, 0x00	; 0
     83e:	30 e0       	ldi	r19, 0x00	; 0
     840:	40 e0       	ldi	r20, 0x00	; 0
     842:	5f e3       	ldi	r21, 0x3F	; 63
     844:	e2 d4       	rcall	.+2500   	; 0x120a <__mulsf3>
     846:	9b 01       	movw	r18, r22
     848:	ac 01       	movw	r20, r24
     84a:	c5 01       	movw	r24, r10
     84c:	b4 01       	movw	r22, r8
     84e:	98 d2       	rcall	.+1328   	; 0xd80 <__addsf3>
     850:	20 91 8c 01 	lds	r18, 0x018C
     854:	30 91 8d 01 	lds	r19, 0x018D
     858:	40 91 8e 01 	lds	r20, 0x018E
     85c:	50 91 8f 01 	lds	r21, 0x018F
     860:	8e d2       	rcall	.+1308   	; 0xd7e <__subsf3>
     862:	69 87       	std	Y+9, r22	; 0x09
     864:	7a 87       	std	Y+10, r23	; 0x0a
     866:	8b 87       	std	Y+11, r24	; 0x0b
     868:	9c 87       	std	Y+12, r25	; 0x0c
     86a:	60 93 80 01 	sts	0x0180, r22
     86e:	70 93 81 01 	sts	0x0181, r23
     872:	80 93 82 01 	sts	0x0182, r24
     876:	90 93 83 01 	sts	0x0183, r25
	
	Xacc = atan2f(aYg,aZg)*180/M_PI;
     87a:	40 90 5a 01 	lds	r4, 0x015A
     87e:	50 90 5b 01 	lds	r5, 0x015B
     882:	60 90 5c 01 	lds	r6, 0x015C
     886:	70 90 5d 01 	lds	r7, 0x015D
     88a:	80 90 66 01 	lds	r8, 0x0166
     88e:	90 90 67 01 	lds	r9, 0x0167
     892:	a0 90 68 01 	lds	r10, 0x0168
     896:	b0 90 69 01 	lds	r11, 0x0169
     89a:	a3 01       	movw	r20, r6
     89c:	92 01       	movw	r18, r4
     89e:	c5 01       	movw	r24, r10
     8a0:	b4 01       	movw	r22, r8
     8a2:	e1 d2       	rcall	.+1474   	; 0xe66 <atan2>
     8a4:	20 e0       	ldi	r18, 0x00	; 0
     8a6:	30 e0       	ldi	r19, 0x00	; 0
     8a8:	44 e3       	ldi	r20, 0x34	; 52
     8aa:	53 e4       	ldi	r21, 0x43	; 67
     8ac:	ae d4       	rcall	.+2396   	; 0x120a <__mulsf3>
     8ae:	2b ed       	ldi	r18, 0xDB	; 219
     8b0:	3f e0       	ldi	r19, 0x0F	; 15
     8b2:	49 e4       	ldi	r20, 0x49	; 73
     8b4:	50 e4       	ldi	r21, 0x40	; 64
     8b6:	2e d3       	rcall	.+1628   	; 0xf14 <__divsf3>
     8b8:	6d 87       	std	Y+13, r22	; 0x0d
     8ba:	7e 87       	std	Y+14, r23	; 0x0e
     8bc:	8f 87       	std	Y+15, r24	; 0x0f
     8be:	98 8b       	std	Y+16, r25	; 0x10
     8c0:	60 93 94 01 	sts	0x0194, r22
     8c4:	70 93 95 01 	sts	0x0195, r23
     8c8:	80 93 96 01 	sts	0x0196, r24
     8cc:	90 93 97 01 	sts	0x0197, r25
	Yacc = atan2f(aXg,aZg)*180/M_PI;
     8d0:	c0 90 56 01 	lds	r12, 0x0156
     8d4:	d0 90 57 01 	lds	r13, 0x0157
     8d8:	e0 90 58 01 	lds	r14, 0x0158
     8dc:	f0 90 59 01 	lds	r15, 0x0159
     8e0:	a3 01       	movw	r20, r6
     8e2:	92 01       	movw	r18, r4
     8e4:	c7 01       	movw	r24, r14
     8e6:	b6 01       	movw	r22, r12
     8e8:	be d2       	rcall	.+1404   	; 0xe66 <atan2>
     8ea:	20 e0       	ldi	r18, 0x00	; 0
     8ec:	30 e0       	ldi	r19, 0x00	; 0
     8ee:	44 e3       	ldi	r20, 0x34	; 52
     8f0:	53 e4       	ldi	r21, 0x43	; 67
     8f2:	8b d4       	rcall	.+2326   	; 0x120a <__mulsf3>
     8f4:	2b ed       	ldi	r18, 0xDB	; 219
     8f6:	3f e0       	ldi	r19, 0x0F	; 15
     8f8:	49 e4       	ldi	r20, 0x49	; 73
     8fa:	50 e4       	ldi	r21, 0x40	; 64
     8fc:	0b d3       	rcall	.+1558   	; 0xf14 <__divsf3>
     8fe:	69 8b       	std	Y+17, r22	; 0x11
     900:	7a 8b       	std	Y+18, r23	; 0x12
     902:	8b 8b       	std	Y+19, r24	; 0x13
     904:	9c 8b       	std	Y+20, r25	; 0x14
     906:	60 93 6a 01 	sts	0x016A, r22
     90a:	70 93 6b 01 	sts	0x016B, r23
     90e:	80 93 6c 01 	sts	0x016C, r24
     912:	90 93 6d 01 	sts	0x016D, r25
	Zacc = atan2f(aXg,aYg)*180/M_PI;
     916:	a5 01       	movw	r20, r10
     918:	94 01       	movw	r18, r8
     91a:	c7 01       	movw	r24, r14
     91c:	b6 01       	movw	r22, r12
     91e:	a3 d2       	rcall	.+1350   	; 0xe66 <atan2>
     920:	20 e0       	ldi	r18, 0x00	; 0
     922:	30 e0       	ldi	r19, 0x00	; 0
     924:	44 e3       	ldi	r20, 0x34	; 52
     926:	53 e4       	ldi	r21, 0x43	; 67
     928:	70 d4       	rcall	.+2272   	; 0x120a <__mulsf3>
     92a:	2b ed       	ldi	r18, 0xDB	; 219
     92c:	3f e0       	ldi	r19, 0x0F	; 15
     92e:	49 e4       	ldi	r20, 0x49	; 73
     930:	50 e4       	ldi	r21, 0x40	; 64
     932:	f0 d2       	rcall	.+1504   	; 0xf14 <__divsf3>
     934:	6d 8b       	std	Y+21, r22	; 0x15
     936:	7e 8b       	std	Y+22, r23	; 0x16
     938:	8f 8b       	std	Y+23, r24	; 0x17
     93a:	98 8f       	std	Y+24, r25	; 0x18
     93c:	60 93 8c 01 	sts	0x018C, r22
     940:	70 93 8d 01 	sts	0x018D, r23
     944:	80 93 8e 01 	sts	0x018E, r24
     948:	90 93 8f 01 	sts	0x018F, r25
	AngleX = A * (AngleX + X) + (1-A) * Xacc;
     94c:	a0 90 38 01 	lds	r10, 0x0138
     950:	b0 90 39 01 	lds	r11, 0x0139
     954:	b5 01       	movw	r22, r10
     956:	88 27       	eor	r24, r24
     958:	77 fd       	sbrc	r23, 7
     95a:	80 95       	com	r24
     95c:	98 2f       	mov	r25, r24
     95e:	75 d3       	rcall	.+1770   	; 0x104a <__floatsisf>
     960:	6b 01       	movw	r12, r22
     962:	7c 01       	movw	r14, r24
     964:	61 e0       	ldi	r22, 0x01	; 1
     966:	70 e0       	ldi	r23, 0x00	; 0
     968:	6a 19       	sub	r22, r10
     96a:	7b 09       	sbc	r23, r11
     96c:	88 27       	eor	r24, r24
     96e:	77 fd       	sbrc	r23, 7
     970:	80 95       	com	r24
     972:	98 2f       	mov	r25, r24
     974:	6a d3       	rcall	.+1748   	; 0x104a <__floatsisf>
     976:	2b 01       	movw	r4, r22
     978:	3c 01       	movw	r6, r24
     97a:	20 91 44 01 	lds	r18, 0x0144
     97e:	30 91 45 01 	lds	r19, 0x0145
     982:	40 91 46 01 	lds	r20, 0x0146
     986:	50 91 47 01 	lds	r21, 0x0147
     98a:	69 81       	ldd	r22, Y+1	; 0x01
     98c:	7a 81       	ldd	r23, Y+2	; 0x02
     98e:	8b 81       	ldd	r24, Y+3	; 0x03
     990:	9c 81       	ldd	r25, Y+4	; 0x04
     992:	f6 d1       	rcall	.+1004   	; 0xd80 <__addsf3>
     994:	9b 01       	movw	r18, r22
     996:	ac 01       	movw	r20, r24
     998:	c7 01       	movw	r24, r14
     99a:	b6 01       	movw	r22, r12
     99c:	36 d4       	rcall	.+2156   	; 0x120a <__mulsf3>
     99e:	4b 01       	movw	r8, r22
     9a0:	5c 01       	movw	r10, r24
     9a2:	a3 01       	movw	r20, r6
     9a4:	92 01       	movw	r18, r4
     9a6:	6d 85       	ldd	r22, Y+13	; 0x0d
     9a8:	7e 85       	ldd	r23, Y+14	; 0x0e
     9aa:	8f 85       	ldd	r24, Y+15	; 0x0f
     9ac:	98 89       	ldd	r25, Y+16	; 0x10
     9ae:	2d d4       	rcall	.+2138   	; 0x120a <__mulsf3>
     9b0:	9b 01       	movw	r18, r22
     9b2:	ac 01       	movw	r20, r24
     9b4:	c5 01       	movw	r24, r10
     9b6:	b4 01       	movw	r22, r8
     9b8:	e3 d1       	rcall	.+966    	; 0xd80 <__addsf3>
     9ba:	4b 01       	movw	r8, r22
     9bc:	5c 01       	movw	r10, r24
     9be:	60 93 44 01 	sts	0x0144, r22
     9c2:	70 93 45 01 	sts	0x0145, r23
     9c6:	80 93 46 01 	sts	0x0146, r24
     9ca:	90 93 47 01 	sts	0x0147, r25
	AngleY = A * (AngleY + Y) + (1-A) * Yacc;
     9ce:	20 91 40 01 	lds	r18, 0x0140
     9d2:	30 91 41 01 	lds	r19, 0x0141
     9d6:	40 91 42 01 	lds	r20, 0x0142
     9da:	50 91 43 01 	lds	r21, 0x0143
     9de:	6d 81       	ldd	r22, Y+5	; 0x05
     9e0:	7e 81       	ldd	r23, Y+6	; 0x06
     9e2:	8f 81       	ldd	r24, Y+7	; 0x07
     9e4:	98 85       	ldd	r25, Y+8	; 0x08
     9e6:	cc d1       	rcall	.+920    	; 0xd80 <__addsf3>
     9e8:	9b 01       	movw	r18, r22
     9ea:	ac 01       	movw	r20, r24
     9ec:	c7 01       	movw	r24, r14
     9ee:	b6 01       	movw	r22, r12
     9f0:	0c d4       	rcall	.+2072   	; 0x120a <__mulsf3>
     9f2:	69 83       	std	Y+1, r22	; 0x01
     9f4:	7a 83       	std	Y+2, r23	; 0x02
     9f6:	8b 83       	std	Y+3, r24	; 0x03
     9f8:	9c 83       	std	Y+4, r25	; 0x04
     9fa:	a3 01       	movw	r20, r6
     9fc:	92 01       	movw	r18, r4
     9fe:	69 89       	ldd	r22, Y+17	; 0x11
     a00:	7a 89       	ldd	r23, Y+18	; 0x12
     a02:	8b 89       	ldd	r24, Y+19	; 0x13
     a04:	9c 89       	ldd	r25, Y+20	; 0x14
     a06:	01 d4       	rcall	.+2050   	; 0x120a <__mulsf3>
     a08:	9b 01       	movw	r18, r22
     a0a:	ac 01       	movw	r20, r24
     a0c:	69 81       	ldd	r22, Y+1	; 0x01
     a0e:	7a 81       	ldd	r23, Y+2	; 0x02
     a10:	8b 81       	ldd	r24, Y+3	; 0x03
     a12:	9c 81       	ldd	r25, Y+4	; 0x04
     a14:	b5 d1       	rcall	.+874    	; 0xd80 <__addsf3>
     a16:	60 93 40 01 	sts	0x0140, r22
     a1a:	70 93 41 01 	sts	0x0141, r23
     a1e:	80 93 42 01 	sts	0x0142, r24
     a22:	90 93 43 01 	sts	0x0143, r25
	AngleZ = A * (AngleZ + Z) + (1-A) * Zacc;
     a26:	20 91 3c 01 	lds	r18, 0x013C
     a2a:	30 91 3d 01 	lds	r19, 0x013D
     a2e:	40 91 3e 01 	lds	r20, 0x013E
     a32:	50 91 3f 01 	lds	r21, 0x013F
     a36:	69 85       	ldd	r22, Y+9	; 0x09
     a38:	7a 85       	ldd	r23, Y+10	; 0x0a
     a3a:	8b 85       	ldd	r24, Y+11	; 0x0b
     a3c:	9c 85       	ldd	r25, Y+12	; 0x0c
     a3e:	a0 d1       	rcall	.+832    	; 0xd80 <__addsf3>
     a40:	9b 01       	movw	r18, r22
     a42:	ac 01       	movw	r20, r24
     a44:	c7 01       	movw	r24, r14
     a46:	b6 01       	movw	r22, r12
     a48:	e0 d3       	rcall	.+1984   	; 0x120a <__mulsf3>
     a4a:	6b 01       	movw	r12, r22
     a4c:	7c 01       	movw	r14, r24
     a4e:	a3 01       	movw	r20, r6
     a50:	92 01       	movw	r18, r4
     a52:	6d 89       	ldd	r22, Y+21	; 0x15
     a54:	7e 89       	ldd	r23, Y+22	; 0x16
     a56:	8f 89       	ldd	r24, Y+23	; 0x17
     a58:	98 8d       	ldd	r25, Y+24	; 0x18
     a5a:	d7 d3       	rcall	.+1966   	; 0x120a <__mulsf3>
     a5c:	9b 01       	movw	r18, r22
     a5e:	ac 01       	movw	r20, r24
     a60:	c7 01       	movw	r24, r14
     a62:	b6 01       	movw	r22, r12
     a64:	8d d1       	rcall	.+794    	; 0xd80 <__addsf3>
     a66:	60 93 3c 01 	sts	0x013C, r22
     a6a:	70 93 3d 01 	sts	0x013D, r23
     a6e:	80 93 3e 01 	sts	0x013E, r24
     a72:	90 93 3f 01 	sts	0x013F, r25

	//printf(" %f;  %f;  %f;\n\n", AngleX,AngleY,AngleZ);
	
	if (AngleX < -171 && -178.3 < AngleX )
     a76:	20 e0       	ldi	r18, 0x00	; 0
     a78:	30 e0       	ldi	r19, 0x00	; 0
     a7a:	4b e2       	ldi	r20, 0x2B	; 43
     a7c:	53 ec       	ldi	r21, 0xC3	; 195
     a7e:	c5 01       	movw	r24, r10
     a80:	b4 01       	movw	r22, r8
     a82:	44 d2       	rcall	.+1160   	; 0xf0c <__cmpsf2>
     a84:	88 23       	and	r24, r24
     a86:	0c f0       	brlt	.+2      	; 0xa8a <__vector_11+0x400>
     a88:	4b c0       	rjmp	.+150    	; 0xb20 <__vector_11+0x496>
     a8a:	2d ec       	ldi	r18, 0xCD	; 205
     a8c:	3c e4       	ldi	r19, 0x4C	; 76
     a8e:	42 e3       	ldi	r20, 0x32	; 50
     a90:	53 ec       	ldi	r21, 0xC3	; 195
     a92:	c5 01       	movw	r24, r10
     a94:	b4 01       	movw	r22, r8
     a96:	ae d3       	rcall	.+1884   	; 0x11f4 <__gesf2>
     a98:	18 16       	cp	r1, r24
     a9a:	0c f0       	brlt	.+2      	; 0xa9e <__vector_11+0x414>
     a9c:	41 c0       	rjmp	.+130    	; 0xb20 <__vector_11+0x496>
	{
		AngleX_shift = AngleX + 180;
     a9e:	20 e0       	ldi	r18, 0x00	; 0
     aa0:	30 e0       	ldi	r19, 0x00	; 0
     aa2:	44 e3       	ldi	r20, 0x34	; 52
     aa4:	53 e4       	ldi	r21, 0x43	; 67
     aa6:	c5 01       	movw	r24, r10
     aa8:	b4 01       	movw	r22, r8
     aaa:	6a d1       	rcall	.+724    	; 0xd80 <__addsf3>
     aac:	60 93 7a 01 	sts	0x017A, r22
     ab0:	70 93 7b 01 	sts	0x017B, r23
     ab4:	80 93 7c 01 	sts	0x017C, r24
     ab8:	90 93 7d 01 	sts	0x017D, r25
		PWM =( 0.6/7.3*AngleX_shift + .06027397)*256; //Relationship based off experimental data of duty cycle and thrust output
     abc:	2a e2       	ldi	r18, 0x2A	; 42
     abe:	34 e5       	ldi	r19, 0x54	; 84
     ac0:	48 ea       	ldi	r20, 0xA8	; 168
     ac2:	5d e3       	ldi	r21, 0x3D	; 61
     ac4:	a2 d3       	rcall	.+1860   	; 0x120a <__mulsf3>
     ac6:	27 ed       	ldi	r18, 0xD7	; 215
     ac8:	31 ee       	ldi	r19, 0xE1	; 225
     aca:	46 e7       	ldi	r20, 0x76	; 118
     acc:	5d e3       	ldi	r21, 0x3D	; 61
     ace:	58 d1       	rcall	.+688    	; 0xd80 <__addsf3>
     ad0:	20 e0       	ldi	r18, 0x00	; 0
     ad2:	30 e0       	ldi	r19, 0x00	; 0
     ad4:	40 e8       	ldi	r20, 0x80	; 128
     ad6:	53 e4       	ldi	r21, 0x43	; 67
     ad8:	98 d3       	rcall	.+1840   	; 0x120a <__mulsf3>
     ada:	84 d2       	rcall	.+1288   	; 0xfe4 <__fixsfsi>
     adc:	60 93 3a 01 	sts	0x013A, r22
     ae0:	70 93 3b 01 	sts	0x013B, r23
		OCR0A = PWM;
     ae4:	67 bd       	out	0x27, r22	; 39
		printf("%d;  right     %f;\n", PWM,AngleX_shift);
     ae6:	80 91 7d 01 	lds	r24, 0x017D
     aea:	8f 93       	push	r24
     aec:	80 91 7c 01 	lds	r24, 0x017C
     af0:	8f 93       	push	r24
     af2:	80 91 7b 01 	lds	r24, 0x017B
     af6:	8f 93       	push	r24
     af8:	80 91 7a 01 	lds	r24, 0x017A
     afc:	8f 93       	push	r24
     afe:	80 91 3b 01 	lds	r24, 0x013B
     b02:	8f 93       	push	r24
     b04:	80 91 3a 01 	lds	r24, 0x013A
     b08:	8f 93       	push	r24
     b0a:	8e e0       	ldi	r24, 0x0E	; 14
     b0c:	91 e0       	ldi	r25, 0x01	; 1
     b0e:	9f 93       	push	r25
     b10:	8f 93       	push	r24
     b12:	94 d8       	rcall	.-3800   	; 0xfffffc3c <__eeprom_end+0xff7efc3c>
		
		return;
     b14:	0f b6       	in	r0, 0x3f	; 63
     b16:	f8 94       	cli
     b18:	de bf       	out	0x3e, r29	; 62
     b1a:	0f be       	out	0x3f, r0	; 63
     b1c:	cd bf       	out	0x3d, r28	; 61
     b1e:	57 c0       	rjmp	.+174    	; 0xbce <__vector_11+0x544>
	}
	
	
		else if(171 < AngleX && AngleX < 178.3)
     b20:	20 e0       	ldi	r18, 0x00	; 0
     b22:	30 e0       	ldi	r19, 0x00	; 0
     b24:	4b e2       	ldi	r20, 0x2B	; 43
     b26:	53 e4       	ldi	r21, 0x43	; 67
     b28:	c5 01       	movw	r24, r10
     b2a:	b4 01       	movw	r22, r8
     b2c:	63 d3       	rcall	.+1734   	; 0x11f4 <__gesf2>
     b2e:	18 16       	cp	r1, r24
     b30:	0c f0       	brlt	.+2      	; 0xb34 <__vector_11+0x4aa>
     b32:	4b c0       	rjmp	.+150    	; 0xbca <__vector_11+0x540>
     b34:	2d ec       	ldi	r18, 0xCD	; 205
     b36:	3c e4       	ldi	r19, 0x4C	; 76
     b38:	42 e3       	ldi	r20, 0x32	; 50
     b3a:	53 e4       	ldi	r21, 0x43	; 67
     b3c:	c5 01       	movw	r24, r10
     b3e:	b4 01       	movw	r22, r8
     b40:	e5 d1       	rcall	.+970    	; 0xf0c <__cmpsf2>
     b42:	88 23       	and	r24, r24
     b44:	0c f0       	brlt	.+2      	; 0xb48 <__vector_11+0x4be>
     b46:	41 c0       	rjmp	.+130    	; 0xbca <__vector_11+0x540>
		{
			AngleX_shift = 180 - AngleX;
     b48:	a5 01       	movw	r20, r10
     b4a:	94 01       	movw	r18, r8
     b4c:	60 e0       	ldi	r22, 0x00	; 0
     b4e:	70 e0       	ldi	r23, 0x00	; 0
     b50:	84 e3       	ldi	r24, 0x34	; 52
     b52:	93 e4       	ldi	r25, 0x43	; 67
     b54:	14 d1       	rcall	.+552    	; 0xd7e <__subsf3>
     b56:	60 93 7a 01 	sts	0x017A, r22
     b5a:	70 93 7b 01 	sts	0x017B, r23
     b5e:	80 93 7c 01 	sts	0x017C, r24
     b62:	90 93 7d 01 	sts	0x017D, r25
			PWM =( 0.6/7.3*AngleX_shift + .06027397)*256; //Relationship based off experimental data of duty cycle and thrust output
     b66:	2a e2       	ldi	r18, 0x2A	; 42
     b68:	34 e5       	ldi	r19, 0x54	; 84
     b6a:	48 ea       	ldi	r20, 0xA8	; 168
     b6c:	5d e3       	ldi	r21, 0x3D	; 61
     b6e:	4d d3       	rcall	.+1690   	; 0x120a <__mulsf3>
     b70:	27 ed       	ldi	r18, 0xD7	; 215
     b72:	31 ee       	ldi	r19, 0xE1	; 225
     b74:	46 e7       	ldi	r20, 0x76	; 118
     b76:	5d e3       	ldi	r21, 0x3D	; 61
     b78:	03 d1       	rcall	.+518    	; 0xd80 <__addsf3>
     b7a:	20 e0       	ldi	r18, 0x00	; 0
     b7c:	30 e0       	ldi	r19, 0x00	; 0
     b7e:	40 e8       	ldi	r20, 0x80	; 128
     b80:	53 e4       	ldi	r21, 0x43	; 67
     b82:	43 d3       	rcall	.+1670   	; 0x120a <__mulsf3>
     b84:	2f d2       	rcall	.+1118   	; 0xfe4 <__fixsfsi>
     b86:	60 93 3a 01 	sts	0x013A, r22
     b8a:	70 93 3b 01 	sts	0x013B, r23
			OCR0B = PWM;
     b8e:	68 bd       	out	0x28, r22	; 40
			printf("%d;   left     %f;\n", PWM,AngleX_shift);
     b90:	80 91 7d 01 	lds	r24, 0x017D
     b94:	8f 93       	push	r24
     b96:	80 91 7c 01 	lds	r24, 0x017C
     b9a:	8f 93       	push	r24
     b9c:	80 91 7b 01 	lds	r24, 0x017B
     ba0:	8f 93       	push	r24
     ba2:	80 91 7a 01 	lds	r24, 0x017A
     ba6:	8f 93       	push	r24
     ba8:	80 91 3b 01 	lds	r24, 0x013B
     bac:	8f 93       	push	r24
     bae:	80 91 3a 01 	lds	r24, 0x013A
     bb2:	8f 93       	push	r24
     bb4:	82 e2       	ldi	r24, 0x22	; 34
     bb6:	91 e0       	ldi	r25, 0x01	; 1
     bb8:	9f 93       	push	r25
     bba:	8f 93       	push	r24
     bbc:	3f d8       	rcall	.-3970   	; 0xfffffc3c <__eeprom_end+0xff7efc3c>
			
		
			return;
     bbe:	0f b6       	in	r0, 0x3f	; 63
     bc0:	f8 94       	cli
     bc2:	de bf       	out	0x3e, r29	; 62
     bc4:	0f be       	out	0x3f, r0	; 63
     bc6:	cd bf       	out	0x3d, r28	; 61
     bc8:	02 c0       	rjmp	.+4      	; 0xbce <__vector_11+0x544>
		
		
			else if((AngleX < -178.3 || AngleX > 178.3)&&(AngleX > -171 || AngleX < 171));
			{
				//printf("working??\n");
				OCR0A = 0;
     bca:	17 bc       	out	0x27, r1	; 39
				OCR0B = 0;
     bcc:	18 bc       	out	0x28, r1	; 40
				return;
			}
}
     bce:	68 96       	adiw	r28, 0x18	; 24
     bd0:	0f b6       	in	r0, 0x3f	; 63
     bd2:	f8 94       	cli
     bd4:	de bf       	out	0x3e, r29	; 62
     bd6:	0f be       	out	0x3f, r0	; 63
     bd8:	cd bf       	out	0x3d, r28	; 61
     bda:	df 91       	pop	r29
     bdc:	cf 91       	pop	r28
     bde:	ff 91       	pop	r31
     be0:	ef 91       	pop	r30
     be2:	bf 91       	pop	r27
     be4:	af 91       	pop	r26
     be6:	9f 91       	pop	r25
     be8:	8f 91       	pop	r24
     bea:	7f 91       	pop	r23
     bec:	6f 91       	pop	r22
     bee:	5f 91       	pop	r21
     bf0:	4f 91       	pop	r20
     bf2:	3f 91       	pop	r19
     bf4:	2f 91       	pop	r18
     bf6:	1f 91       	pop	r17
     bf8:	0f 91       	pop	r16
     bfa:	ff 90       	pop	r15
     bfc:	ef 90       	pop	r14
     bfe:	df 90       	pop	r13
     c00:	cf 90       	pop	r12
     c02:	bf 90       	pop	r11
     c04:	af 90       	pop	r10
     c06:	9f 90       	pop	r9
     c08:	8f 90       	pop	r8
     c0a:	7f 90       	pop	r7
     c0c:	6f 90       	pop	r6
     c0e:	5f 90       	pop	r5
     c10:	4f 90       	pop	r4
     c12:	0f 90       	pop	r0
     c14:	0f be       	out	0x3f, r0	; 63
     c16:	0f 90       	pop	r0
     c18:	1f 90       	pop	r1
     c1a:	18 95       	reti

00000c1c <i2c_init>:
*************************************************************************/
void i2c_init(void)
{
  /* initialize TWI clock: 100 kHz clock, TWPS = 0 => prescaler = 1 */
  
  TWSR = 0;                         /* no prescaler */
     c1c:	10 92 b9 00 	sts	0x00B9, r1
  TWBR = ((F_CPU/SCL_CLOCK)-16)/2;  /* must be > 10 for stable operation */
     c20:	8c e0       	ldi	r24, 0x0C	; 12
     c22:	80 93 b8 00 	sts	0x00B8, r24
     c26:	08 95       	ret

00000c28 <i2c_start>:
{
	uint32_t  i2c_timer = 0;
    uint8_t   twst;

	// send START condition
	TWCR = (1<<TWINT) | (1<<TWSTA) | (1<<TWEN);
     c28:	94 ea       	ldi	r25, 0xA4	; 164
     c2a:	90 93 bc 00 	sts	0x00BC, r25

	// wait until transmission completed
	i2c_timer = I2C_TIMER_DELAY;
     c2e:	4f ef       	ldi	r20, 0xFF	; 255
     c30:	50 e0       	ldi	r21, 0x00	; 0
     c32:	60 e0       	ldi	r22, 0x00	; 0
     c34:	70 e0       	ldi	r23, 0x00	; 0
	while(!(TWCR & (1<<TWINT)) && i2c_timer--);
     c36:	ec eb       	ldi	r30, 0xBC	; 188
     c38:	f0 e0       	ldi	r31, 0x00	; 0
     c3a:	90 81       	ld	r25, Z
     c3c:	99 23       	and	r25, r25
     c3e:	34 f0       	brlt	.+12     	; 0xc4c <i2c_start+0x24>
     c40:	41 50       	subi	r20, 0x01	; 1
     c42:	51 09       	sbc	r21, r1
     c44:	61 09       	sbc	r22, r1
     c46:	71 09       	sbc	r23, r1
     c48:	c0 f7       	brcc	.-16     	; 0xc3a <i2c_start+0x12>
     c4a:	04 c0       	rjmp	.+8      	; 0xc54 <i2c_start+0x2c>
	if(i2c_timer == 0)
     c4c:	45 2b       	or	r20, r21
     c4e:	46 2b       	or	r20, r22
     c50:	47 2b       	or	r20, r23
     c52:	41 f1       	breq	.+80     	; 0xca4 <i2c_start+0x7c>
		return 1;

	// check value of TWI Status Register. Mask prescaler bits.
	twst = TW_STATUS & 0xF8;
     c54:	90 91 b9 00 	lds	r25, 0x00B9
     c58:	98 7f       	andi	r25, 0xF8	; 248
	if ( (twst != TW_START) && (twst != TW_REP_START)) return 1;
     c5a:	98 30       	cpi	r25, 0x08	; 8
     c5c:	11 f0       	breq	.+4      	; 0xc62 <i2c_start+0x3a>
     c5e:	90 31       	cpi	r25, 0x10	; 16
     c60:	19 f5       	brne	.+70     	; 0xca8 <i2c_start+0x80>

	// send device address
	TWDR = address;
     c62:	80 93 bb 00 	sts	0x00BB, r24
	TWCR = (1<<TWINT) | (1<<TWEN);
     c66:	84 e8       	ldi	r24, 0x84	; 132
     c68:	80 93 bc 00 	sts	0x00BC, r24

	// wail until transmission completed and ACK/NACK has been received
	i2c_timer = I2C_TIMER_DELAY;
     c6c:	8f ef       	ldi	r24, 0xFF	; 255
     c6e:	90 e0       	ldi	r25, 0x00	; 0
     c70:	a0 e0       	ldi	r26, 0x00	; 0
     c72:	b0 e0       	ldi	r27, 0x00	; 0
	while(!(TWCR & (1<<TWINT)) && i2c_timer--);
     c74:	ec eb       	ldi	r30, 0xBC	; 188
     c76:	f0 e0       	ldi	r31, 0x00	; 0
     c78:	20 81       	ld	r18, Z
     c7a:	22 23       	and	r18, r18
     c7c:	2c f0       	brlt	.+10     	; 0xc88 <i2c_start+0x60>
     c7e:	01 97       	sbiw	r24, 0x01	; 1
     c80:	a1 09       	sbc	r26, r1
     c82:	b1 09       	sbc	r27, r1
     c84:	c8 f7       	brcc	.-14     	; 0xc78 <i2c_start+0x50>
     c86:	04 c0       	rjmp	.+8      	; 0xc90 <i2c_start+0x68>
	if(i2c_timer == 0)
     c88:	89 2b       	or	r24, r25
     c8a:	8a 2b       	or	r24, r26
     c8c:	8b 2b       	or	r24, r27
     c8e:	71 f0       	breq	.+28     	; 0xcac <i2c_start+0x84>
		return 1;

	// check value of TWI Status Register. Mask prescaler bits.
	twst = TW_STATUS & 0xF8;
     c90:	90 91 b9 00 	lds	r25, 0x00B9
     c94:	98 7f       	andi	r25, 0xF8	; 248
	if ( (twst != TW_MT_SLA_ACK) && (twst != TW_MR_SLA_ACK) ) return 1;
     c96:	98 31       	cpi	r25, 0x18	; 24
     c98:	59 f0       	breq	.+22     	; 0xcb0 <i2c_start+0x88>
     c9a:	81 e0       	ldi	r24, 0x01	; 1
     c9c:	90 34       	cpi	r25, 0x40	; 64
     c9e:	49 f4       	brne	.+18     	; 0xcb2 <i2c_start+0x8a>
     ca0:	80 e0       	ldi	r24, 0x00	; 0
     ca2:	08 95       	ret

	// wait until transmission completed
	i2c_timer = I2C_TIMER_DELAY;
	while(!(TWCR & (1<<TWINT)) && i2c_timer--);
	if(i2c_timer == 0)
		return 1;
     ca4:	81 e0       	ldi	r24, 0x01	; 1
     ca6:	08 95       	ret

	// check value of TWI Status Register. Mask prescaler bits.
	twst = TW_STATUS & 0xF8;
	if ( (twst != TW_START) && (twst != TW_REP_START)) return 1;
     ca8:	81 e0       	ldi	r24, 0x01	; 1
     caa:	08 95       	ret

	// wail until transmission completed and ACK/NACK has been received
	i2c_timer = I2C_TIMER_DELAY;
	while(!(TWCR & (1<<TWINT)) && i2c_timer--);
	if(i2c_timer == 0)
		return 1;
     cac:	81 e0       	ldi	r24, 0x01	; 1
     cae:	08 95       	ret

	// check value of TWI Status Register. Mask prescaler bits.
	twst = TW_STATUS & 0xF8;
	if ( (twst != TW_MT_SLA_ACK) && (twst != TW_MR_SLA_ACK) ) return 1;

	return 0;
     cb0:	80 e0       	ldi	r24, 0x00	; 0

}/* i2c_start */
     cb2:	08 95       	ret

00000cb4 <i2c_stop>:
void i2c_stop(void)
{
	uint32_t  i2c_timer = 0;

    /* send stop condition */
	TWCR = (1<<TWINT) | (1<<TWEN) | (1<<TWSTO);
     cb4:	84 e9       	ldi	r24, 0x94	; 148
     cb6:	80 93 bc 00 	sts	0x00BC, r24
	
	// wait until stop condition is executed and bus released
	i2c_timer = I2C_TIMER_DELAY;
	while((TWCR & (1<<TWSTO)) && i2c_timer--);
     cba:	80 e0       	ldi	r24, 0x00	; 0
     cbc:	90 e0       	ldi	r25, 0x00	; 0
     cbe:	ec eb       	ldi	r30, 0xBC	; 188
     cc0:	f0 e0       	ldi	r31, 0x00	; 0
     cc2:	20 81       	ld	r18, Z
     cc4:	24 ff       	sbrs	r18, 4
     cc6:	05 c0       	rjmp	.+10     	; 0xcd2 <i2c_stop+0x1e>
     cc8:	01 96       	adiw	r24, 0x01	; 1
     cca:	81 15       	cp	r24, r1
     ccc:	21 e0       	ldi	r18, 0x01	; 1
     cce:	92 07       	cpc	r25, r18
     cd0:	c1 f7       	brne	.-16     	; 0xcc2 <i2c_stop+0xe>
     cd2:	08 95       	ret

00000cd4 <i2c_write>:
{	
	uint32_t  i2c_timer = 0;
    uint8_t   twst;
    
	// send data to the previously addressed device
	TWDR = data;
     cd4:	80 93 bb 00 	sts	0x00BB, r24
	TWCR = (1<<TWINT) | (1<<TWEN);
     cd8:	84 e8       	ldi	r24, 0x84	; 132
     cda:	80 93 bc 00 	sts	0x00BC, r24

	// wait until transmission completed
	i2c_timer = I2C_TIMER_DELAY;
     cde:	8f ef       	ldi	r24, 0xFF	; 255
     ce0:	90 e0       	ldi	r25, 0x00	; 0
     ce2:	a0 e0       	ldi	r26, 0x00	; 0
     ce4:	b0 e0       	ldi	r27, 0x00	; 0
	while(!(TWCR & (1<<TWINT)) && i2c_timer--);
     ce6:	ec eb       	ldi	r30, 0xBC	; 188
     ce8:	f0 e0       	ldi	r31, 0x00	; 0
     cea:	20 81       	ld	r18, Z
     cec:	22 23       	and	r18, r18
     cee:	2c f0       	brlt	.+10     	; 0xcfa <i2c_write+0x26>
     cf0:	01 97       	sbiw	r24, 0x01	; 1
     cf2:	a1 09       	sbc	r26, r1
     cf4:	b1 09       	sbc	r27, r1
     cf6:	c8 f7       	brcc	.-14     	; 0xcea <i2c_write+0x16>
     cf8:	04 c0       	rjmp	.+8      	; 0xd02 <i2c_write+0x2e>
	if(i2c_timer == 0)
     cfa:	89 2b       	or	r24, r25
     cfc:	8a 2b       	or	r24, r26
     cfe:	8b 2b       	or	r24, r27
     d00:	41 f0       	breq	.+16     	; 0xd12 <i2c_write+0x3e>
		return 1;

	// check value of TWI Status Register. Mask prescaler bits
	twst = TW_STATUS & 0xF8;
     d02:	90 91 b9 00 	lds	r25, 0x00B9
     d06:	98 7f       	andi	r25, 0xF8	; 248
	if( twst != TW_MT_DATA_ACK) return 1;
     d08:	81 e0       	ldi	r24, 0x01	; 1
     d0a:	98 32       	cpi	r25, 0x28	; 40
     d0c:	19 f4       	brne	.+6      	; 0xd14 <i2c_write+0x40>
     d0e:	80 e0       	ldi	r24, 0x00	; 0
     d10:	08 95       	ret

	// wait until transmission completed
	i2c_timer = I2C_TIMER_DELAY;
	while(!(TWCR & (1<<TWINT)) && i2c_timer--);
	if(i2c_timer == 0)
		return 1;
     d12:	81 e0       	ldi	r24, 0x01	; 1
	// check value of TWI Status Register. Mask prescaler bits
	twst = TW_STATUS & 0xF8;
	if( twst != TW_MT_DATA_ACK) return 1;
	return 0;

}/* i2c_write */
     d14:	08 95       	ret

00000d16 <i2c_readAck>:
*************************************************************************/
unsigned char i2c_readAck(void)
{
	uint32_t  i2c_timer = 0;

	TWCR = (1<<TWINT) | (1<<TWEN) | (1<<TWEA);
     d16:	84 ec       	ldi	r24, 0xC4	; 196
     d18:	80 93 bc 00 	sts	0x00BC, r24
	i2c_timer = I2C_TIMER_DELAY;
     d1c:	8f ef       	ldi	r24, 0xFF	; 255
     d1e:	90 e0       	ldi	r25, 0x00	; 0
     d20:	a0 e0       	ldi	r26, 0x00	; 0
     d22:	b0 e0       	ldi	r27, 0x00	; 0
	while(!(TWCR & (1<<TWINT)) && i2c_timer--);
     d24:	ec eb       	ldi	r30, 0xBC	; 188
     d26:	f0 e0       	ldi	r31, 0x00	; 0
     d28:	20 81       	ld	r18, Z
     d2a:	22 23       	and	r18, r18
     d2c:	2c f0       	brlt	.+10     	; 0xd38 <i2c_readAck+0x22>
     d2e:	01 97       	sbiw	r24, 0x01	; 1
     d30:	a1 09       	sbc	r26, r1
     d32:	b1 09       	sbc	r27, r1
     d34:	c8 f7       	brcc	.-14     	; 0xd28 <i2c_readAck+0x12>
     d36:	04 c0       	rjmp	.+8      	; 0xd40 <i2c_readAck+0x2a>
	if(i2c_timer == 0)
     d38:	89 2b       	or	r24, r25
     d3a:	8a 2b       	or	r24, r26
     d3c:	8b 2b       	or	r24, r27
     d3e:	19 f0       	breq	.+6      	; 0xd46 <i2c_readAck+0x30>
		return 0;

    return TWDR;
     d40:	80 91 bb 00 	lds	r24, 0x00BB
     d44:	08 95       	ret

	TWCR = (1<<TWINT) | (1<<TWEN) | (1<<TWEA);
	i2c_timer = I2C_TIMER_DELAY;
	while(!(TWCR & (1<<TWINT)) && i2c_timer--);
	if(i2c_timer == 0)
		return 0;
     d46:	80 e0       	ldi	r24, 0x00	; 0

    return TWDR;

}/* i2c_readAck */
     d48:	08 95       	ret

00000d4a <i2c_readNak>:
*************************************************************************/
unsigned char i2c_readNak(void)
{
	uint32_t  i2c_timer = 0;

	TWCR = (1<<TWINT) | (1<<TWEN);
     d4a:	84 e8       	ldi	r24, 0x84	; 132
     d4c:	80 93 bc 00 	sts	0x00BC, r24
	i2c_timer = I2C_TIMER_DELAY;
     d50:	8f ef       	ldi	r24, 0xFF	; 255
     d52:	90 e0       	ldi	r25, 0x00	; 0
     d54:	a0 e0       	ldi	r26, 0x00	; 0
     d56:	b0 e0       	ldi	r27, 0x00	; 0
	while(!(TWCR & (1<<TWINT)) && i2c_timer--);
     d58:	ec eb       	ldi	r30, 0xBC	; 188
     d5a:	f0 e0       	ldi	r31, 0x00	; 0
     d5c:	20 81       	ld	r18, Z
     d5e:	22 23       	and	r18, r18
     d60:	2c f0       	brlt	.+10     	; 0xd6c <i2c_readNak+0x22>
     d62:	01 97       	sbiw	r24, 0x01	; 1
     d64:	a1 09       	sbc	r26, r1
     d66:	b1 09       	sbc	r27, r1
     d68:	c8 f7       	brcc	.-14     	; 0xd5c <i2c_readNak+0x12>
     d6a:	04 c0       	rjmp	.+8      	; 0xd74 <i2c_readNak+0x2a>
	if(i2c_timer == 0)
     d6c:	89 2b       	or	r24, r25
     d6e:	8a 2b       	or	r24, r26
     d70:	8b 2b       	or	r24, r27
     d72:	19 f0       	breq	.+6      	; 0xd7a <i2c_readNak+0x30>
		return 0;
	
    return TWDR;
     d74:	80 91 bb 00 	lds	r24, 0x00BB
     d78:	08 95       	ret

	TWCR = (1<<TWINT) | (1<<TWEN);
	i2c_timer = I2C_TIMER_DELAY;
	while(!(TWCR & (1<<TWINT)) && i2c_timer--);
	if(i2c_timer == 0)
		return 0;
     d7a:	80 e0       	ldi	r24, 0x00	; 0
	
    return TWDR;

}/* i2c_readNak */
     d7c:	08 95       	ret

00000d7e <__subsf3>:
     d7e:	50 58       	subi	r21, 0x80	; 128

00000d80 <__addsf3>:
     d80:	bb 27       	eor	r27, r27
     d82:	aa 27       	eor	r26, r26
     d84:	0e d0       	rcall	.+28     	; 0xda2 <__addsf3x>
     d86:	fc c1       	rjmp	.+1016   	; 0x1180 <__fp_round>
     d88:	ed d1       	rcall	.+986    	; 0x1164 <__fp_pscA>
     d8a:	30 f0       	brcs	.+12     	; 0xd98 <__addsf3+0x18>
     d8c:	f2 d1       	rcall	.+996    	; 0x1172 <__fp_pscB>
     d8e:	20 f0       	brcs	.+8      	; 0xd98 <__addsf3+0x18>
     d90:	31 f4       	brne	.+12     	; 0xd9e <__addsf3+0x1e>
     d92:	9f 3f       	cpi	r25, 0xFF	; 255
     d94:	11 f4       	brne	.+4      	; 0xd9a <__addsf3+0x1a>
     d96:	1e f4       	brtc	.+6      	; 0xd9e <__addsf3+0x1e>
     d98:	bd c1       	rjmp	.+890    	; 0x1114 <__fp_nan>
     d9a:	0e f4       	brtc	.+2      	; 0xd9e <__addsf3+0x1e>
     d9c:	e0 95       	com	r30
     d9e:	e7 fb       	bst	r30, 7
     da0:	b3 c1       	rjmp	.+870    	; 0x1108 <__fp_inf>

00000da2 <__addsf3x>:
     da2:	e9 2f       	mov	r30, r25
     da4:	fe d1       	rcall	.+1020   	; 0x11a2 <__fp_split3>
     da6:	80 f3       	brcs	.-32     	; 0xd88 <__addsf3+0x8>
     da8:	ba 17       	cp	r27, r26
     daa:	62 07       	cpc	r22, r18
     dac:	73 07       	cpc	r23, r19
     dae:	84 07       	cpc	r24, r20
     db0:	95 07       	cpc	r25, r21
     db2:	18 f0       	brcs	.+6      	; 0xdba <__addsf3x+0x18>
     db4:	71 f4       	brne	.+28     	; 0xdd2 <__addsf3x+0x30>
     db6:	9e f5       	brtc	.+102    	; 0xe1e <__addsf3x+0x7c>
     db8:	16 c2       	rjmp	.+1068   	; 0x11e6 <__fp_zero>
     dba:	0e f4       	brtc	.+2      	; 0xdbe <__addsf3x+0x1c>
     dbc:	e0 95       	com	r30
     dbe:	0b 2e       	mov	r0, r27
     dc0:	ba 2f       	mov	r27, r26
     dc2:	a0 2d       	mov	r26, r0
     dc4:	0b 01       	movw	r0, r22
     dc6:	b9 01       	movw	r22, r18
     dc8:	90 01       	movw	r18, r0
     dca:	0c 01       	movw	r0, r24
     dcc:	ca 01       	movw	r24, r20
     dce:	a0 01       	movw	r20, r0
     dd0:	11 24       	eor	r1, r1
     dd2:	ff 27       	eor	r31, r31
     dd4:	59 1b       	sub	r21, r25
     dd6:	99 f0       	breq	.+38     	; 0xdfe <__addsf3x+0x5c>
     dd8:	59 3f       	cpi	r21, 0xF9	; 249
     dda:	50 f4       	brcc	.+20     	; 0xdf0 <__addsf3x+0x4e>
     ddc:	50 3e       	cpi	r21, 0xE0	; 224
     dde:	68 f1       	brcs	.+90     	; 0xe3a <__addsf3x+0x98>
     de0:	1a 16       	cp	r1, r26
     de2:	f0 40       	sbci	r31, 0x00	; 0
     de4:	a2 2f       	mov	r26, r18
     de6:	23 2f       	mov	r18, r19
     de8:	34 2f       	mov	r19, r20
     dea:	44 27       	eor	r20, r20
     dec:	58 5f       	subi	r21, 0xF8	; 248
     dee:	f3 cf       	rjmp	.-26     	; 0xdd6 <__addsf3x+0x34>
     df0:	46 95       	lsr	r20
     df2:	37 95       	ror	r19
     df4:	27 95       	ror	r18
     df6:	a7 95       	ror	r26
     df8:	f0 40       	sbci	r31, 0x00	; 0
     dfa:	53 95       	inc	r21
     dfc:	c9 f7       	brne	.-14     	; 0xdf0 <__addsf3x+0x4e>
     dfe:	7e f4       	brtc	.+30     	; 0xe1e <__addsf3x+0x7c>
     e00:	1f 16       	cp	r1, r31
     e02:	ba 0b       	sbc	r27, r26
     e04:	62 0b       	sbc	r22, r18
     e06:	73 0b       	sbc	r23, r19
     e08:	84 0b       	sbc	r24, r20
     e0a:	ba f0       	brmi	.+46     	; 0xe3a <__addsf3x+0x98>
     e0c:	91 50       	subi	r25, 0x01	; 1
     e0e:	a1 f0       	breq	.+40     	; 0xe38 <__addsf3x+0x96>
     e10:	ff 0f       	add	r31, r31
     e12:	bb 1f       	adc	r27, r27
     e14:	66 1f       	adc	r22, r22
     e16:	77 1f       	adc	r23, r23
     e18:	88 1f       	adc	r24, r24
     e1a:	c2 f7       	brpl	.-16     	; 0xe0c <__addsf3x+0x6a>
     e1c:	0e c0       	rjmp	.+28     	; 0xe3a <__addsf3x+0x98>
     e1e:	ba 0f       	add	r27, r26
     e20:	62 1f       	adc	r22, r18
     e22:	73 1f       	adc	r23, r19
     e24:	84 1f       	adc	r24, r20
     e26:	48 f4       	brcc	.+18     	; 0xe3a <__addsf3x+0x98>
     e28:	87 95       	ror	r24
     e2a:	77 95       	ror	r23
     e2c:	67 95       	ror	r22
     e2e:	b7 95       	ror	r27
     e30:	f7 95       	ror	r31
     e32:	9e 3f       	cpi	r25, 0xFE	; 254
     e34:	08 f0       	brcs	.+2      	; 0xe38 <__addsf3x+0x96>
     e36:	b3 cf       	rjmp	.-154    	; 0xd9e <__addsf3+0x1e>
     e38:	93 95       	inc	r25
     e3a:	88 0f       	add	r24, r24
     e3c:	08 f0       	brcs	.+2      	; 0xe40 <__addsf3x+0x9e>
     e3e:	99 27       	eor	r25, r25
     e40:	ee 0f       	add	r30, r30
     e42:	97 95       	ror	r25
     e44:	87 95       	ror	r24
     e46:	08 95       	ret
     e48:	8d d1       	rcall	.+794    	; 0x1164 <__fp_pscA>
     e4a:	58 f0       	brcs	.+22     	; 0xe62 <__addsf3x+0xc0>
     e4c:	80 e8       	ldi	r24, 0x80	; 128
     e4e:	91 e0       	ldi	r25, 0x01	; 1
     e50:	09 f4       	brne	.+2      	; 0xe54 <__addsf3x+0xb2>
     e52:	9e ef       	ldi	r25, 0xFE	; 254
     e54:	8e d1       	rcall	.+796    	; 0x1172 <__fp_pscB>
     e56:	28 f0       	brcs	.+10     	; 0xe62 <__addsf3x+0xc0>
     e58:	40 e8       	ldi	r20, 0x80	; 128
     e5a:	51 e0       	ldi	r21, 0x01	; 1
     e5c:	59 f4       	brne	.+22     	; 0xe74 <atan2+0xe>
     e5e:	5e ef       	ldi	r21, 0xFE	; 254
     e60:	09 c0       	rjmp	.+18     	; 0xe74 <atan2+0xe>
     e62:	58 c1       	rjmp	.+688    	; 0x1114 <__fp_nan>
     e64:	c0 c1       	rjmp	.+896    	; 0x11e6 <__fp_zero>

00000e66 <atan2>:
     e66:	e9 2f       	mov	r30, r25
     e68:	e0 78       	andi	r30, 0x80	; 128
     e6a:	9b d1       	rcall	.+822    	; 0x11a2 <__fp_split3>
     e6c:	68 f3       	brcs	.-38     	; 0xe48 <__addsf3x+0xa6>
     e6e:	09 2e       	mov	r0, r25
     e70:	05 2a       	or	r0, r21
     e72:	c1 f3       	breq	.-16     	; 0xe64 <__addsf3x+0xc2>
     e74:	26 17       	cp	r18, r22
     e76:	37 07       	cpc	r19, r23
     e78:	48 07       	cpc	r20, r24
     e7a:	59 07       	cpc	r21, r25
     e7c:	38 f0       	brcs	.+14     	; 0xe8c <atan2+0x26>
     e7e:	0e 2e       	mov	r0, r30
     e80:	07 f8       	bld	r0, 7
     e82:	e0 25       	eor	r30, r0
     e84:	69 f0       	breq	.+26     	; 0xea0 <atan2+0x3a>
     e86:	e0 25       	eor	r30, r0
     e88:	e0 64       	ori	r30, 0x40	; 64
     e8a:	0a c0       	rjmp	.+20     	; 0xea0 <atan2+0x3a>
     e8c:	ef 63       	ori	r30, 0x3F	; 63
     e8e:	07 f8       	bld	r0, 7
     e90:	00 94       	com	r0
     e92:	07 fa       	bst	r0, 7
     e94:	db 01       	movw	r26, r22
     e96:	b9 01       	movw	r22, r18
     e98:	9d 01       	movw	r18, r26
     e9a:	dc 01       	movw	r26, r24
     e9c:	ca 01       	movw	r24, r20
     e9e:	ad 01       	movw	r20, r26
     ea0:	ef 93       	push	r30
     ea2:	47 d0       	rcall	.+142    	; 0xf32 <__divsf3_pse>
     ea4:	6d d1       	rcall	.+730    	; 0x1180 <__fp_round>
     ea6:	0a d0       	rcall	.+20     	; 0xebc <atan>
     ea8:	5f 91       	pop	r21
     eaa:	55 23       	and	r21, r21
     eac:	31 f0       	breq	.+12     	; 0xeba <atan2+0x54>
     eae:	2b ed       	ldi	r18, 0xDB	; 219
     eb0:	3f e0       	ldi	r19, 0x0F	; 15
     eb2:	49 e4       	ldi	r20, 0x49	; 73
     eb4:	50 fd       	sbrc	r21, 0
     eb6:	49 ec       	ldi	r20, 0xC9	; 201
     eb8:	63 cf       	rjmp	.-314    	; 0xd80 <__addsf3>
     eba:	08 95       	ret

00000ebc <atan>:
     ebc:	df 93       	push	r29
     ebe:	dd 27       	eor	r29, r29
     ec0:	b9 2f       	mov	r27, r25
     ec2:	bf 77       	andi	r27, 0x7F	; 127
     ec4:	40 e8       	ldi	r20, 0x80	; 128
     ec6:	5f e3       	ldi	r21, 0x3F	; 63
     ec8:	16 16       	cp	r1, r22
     eca:	17 06       	cpc	r1, r23
     ecc:	48 07       	cpc	r20, r24
     ece:	5b 07       	cpc	r21, r27
     ed0:	10 f4       	brcc	.+4      	; 0xed6 <atan+0x1a>
     ed2:	d9 2f       	mov	r29, r25
     ed4:	93 d1       	rcall	.+806    	; 0x11fc <inverse>
     ed6:	9f 93       	push	r25
     ed8:	8f 93       	push	r24
     eda:	7f 93       	push	r23
     edc:	6f 93       	push	r22
     ede:	f8 d1       	rcall	.+1008   	; 0x12d0 <square>
     ee0:	e4 e3       	ldi	r30, 0x34	; 52
     ee2:	f0 e0       	ldi	r31, 0x00	; 0
     ee4:	1a d1       	rcall	.+564    	; 0x111a <__fp_powser>
     ee6:	4c d1       	rcall	.+664    	; 0x1180 <__fp_round>
     ee8:	2f 91       	pop	r18
     eea:	3f 91       	pop	r19
     eec:	4f 91       	pop	r20
     eee:	5f 91       	pop	r21
     ef0:	98 d1       	rcall	.+816    	; 0x1222 <__mulsf3x>
     ef2:	dd 23       	and	r29, r29
     ef4:	49 f0       	breq	.+18     	; 0xf08 <atan+0x4c>
     ef6:	90 58       	subi	r25, 0x80	; 128
     ef8:	a2 ea       	ldi	r26, 0xA2	; 162
     efa:	2a ed       	ldi	r18, 0xDA	; 218
     efc:	3f e0       	ldi	r19, 0x0F	; 15
     efe:	49 ec       	ldi	r20, 0xC9	; 201
     f00:	5f e3       	ldi	r21, 0x3F	; 63
     f02:	d0 78       	andi	r29, 0x80	; 128
     f04:	5d 27       	eor	r21, r29
     f06:	4d df       	rcall	.-358    	; 0xda2 <__addsf3x>
     f08:	df 91       	pop	r29
     f0a:	3a c1       	rjmp	.+628    	; 0x1180 <__fp_round>

00000f0c <__cmpsf2>:
     f0c:	d9 d0       	rcall	.+434    	; 0x10c0 <__fp_cmp>
     f0e:	08 f4       	brcc	.+2      	; 0xf12 <__cmpsf2+0x6>
     f10:	81 e0       	ldi	r24, 0x01	; 1
     f12:	08 95       	ret

00000f14 <__divsf3>:
     f14:	0c d0       	rcall	.+24     	; 0xf2e <__divsf3x>
     f16:	34 c1       	rjmp	.+616    	; 0x1180 <__fp_round>
     f18:	2c d1       	rcall	.+600    	; 0x1172 <__fp_pscB>
     f1a:	40 f0       	brcs	.+16     	; 0xf2c <__divsf3+0x18>
     f1c:	23 d1       	rcall	.+582    	; 0x1164 <__fp_pscA>
     f1e:	30 f0       	brcs	.+12     	; 0xf2c <__divsf3+0x18>
     f20:	21 f4       	brne	.+8      	; 0xf2a <__divsf3+0x16>
     f22:	5f 3f       	cpi	r21, 0xFF	; 255
     f24:	19 f0       	breq	.+6      	; 0xf2c <__divsf3+0x18>
     f26:	f0 c0       	rjmp	.+480    	; 0x1108 <__fp_inf>
     f28:	51 11       	cpse	r21, r1
     f2a:	5e c1       	rjmp	.+700    	; 0x11e8 <__fp_szero>
     f2c:	f3 c0       	rjmp	.+486    	; 0x1114 <__fp_nan>

00000f2e <__divsf3x>:
     f2e:	39 d1       	rcall	.+626    	; 0x11a2 <__fp_split3>
     f30:	98 f3       	brcs	.-26     	; 0xf18 <__divsf3+0x4>

00000f32 <__divsf3_pse>:
     f32:	99 23       	and	r25, r25
     f34:	c9 f3       	breq	.-14     	; 0xf28 <__divsf3+0x14>
     f36:	55 23       	and	r21, r21
     f38:	b1 f3       	breq	.-20     	; 0xf26 <__divsf3+0x12>
     f3a:	95 1b       	sub	r25, r21
     f3c:	55 0b       	sbc	r21, r21
     f3e:	bb 27       	eor	r27, r27
     f40:	aa 27       	eor	r26, r26
     f42:	62 17       	cp	r22, r18
     f44:	73 07       	cpc	r23, r19
     f46:	84 07       	cpc	r24, r20
     f48:	38 f0       	brcs	.+14     	; 0xf58 <__divsf3_pse+0x26>
     f4a:	9f 5f       	subi	r25, 0xFF	; 255
     f4c:	5f 4f       	sbci	r21, 0xFF	; 255
     f4e:	22 0f       	add	r18, r18
     f50:	33 1f       	adc	r19, r19
     f52:	44 1f       	adc	r20, r20
     f54:	aa 1f       	adc	r26, r26
     f56:	a9 f3       	breq	.-22     	; 0xf42 <__divsf3_pse+0x10>
     f58:	33 d0       	rcall	.+102    	; 0xfc0 <__divsf3_pse+0x8e>
     f5a:	0e 2e       	mov	r0, r30
     f5c:	3a f0       	brmi	.+14     	; 0xf6c <__divsf3_pse+0x3a>
     f5e:	e0 e8       	ldi	r30, 0x80	; 128
     f60:	30 d0       	rcall	.+96     	; 0xfc2 <__divsf3_pse+0x90>
     f62:	91 50       	subi	r25, 0x01	; 1
     f64:	50 40       	sbci	r21, 0x00	; 0
     f66:	e6 95       	lsr	r30
     f68:	00 1c       	adc	r0, r0
     f6a:	ca f7       	brpl	.-14     	; 0xf5e <__divsf3_pse+0x2c>
     f6c:	29 d0       	rcall	.+82     	; 0xfc0 <__divsf3_pse+0x8e>
     f6e:	fe 2f       	mov	r31, r30
     f70:	27 d0       	rcall	.+78     	; 0xfc0 <__divsf3_pse+0x8e>
     f72:	66 0f       	add	r22, r22
     f74:	77 1f       	adc	r23, r23
     f76:	88 1f       	adc	r24, r24
     f78:	bb 1f       	adc	r27, r27
     f7a:	26 17       	cp	r18, r22
     f7c:	37 07       	cpc	r19, r23
     f7e:	48 07       	cpc	r20, r24
     f80:	ab 07       	cpc	r26, r27
     f82:	b0 e8       	ldi	r27, 0x80	; 128
     f84:	09 f0       	breq	.+2      	; 0xf88 <__divsf3_pse+0x56>
     f86:	bb 0b       	sbc	r27, r27
     f88:	80 2d       	mov	r24, r0
     f8a:	bf 01       	movw	r22, r30
     f8c:	ff 27       	eor	r31, r31
     f8e:	93 58       	subi	r25, 0x83	; 131
     f90:	5f 4f       	sbci	r21, 0xFF	; 255
     f92:	2a f0       	brmi	.+10     	; 0xf9e <__divsf3_pse+0x6c>
     f94:	9e 3f       	cpi	r25, 0xFE	; 254
     f96:	51 05       	cpc	r21, r1
     f98:	68 f0       	brcs	.+26     	; 0xfb4 <__divsf3_pse+0x82>
     f9a:	b6 c0       	rjmp	.+364    	; 0x1108 <__fp_inf>
     f9c:	25 c1       	rjmp	.+586    	; 0x11e8 <__fp_szero>
     f9e:	5f 3f       	cpi	r21, 0xFF	; 255
     fa0:	ec f3       	brlt	.-6      	; 0xf9c <__divsf3_pse+0x6a>
     fa2:	98 3e       	cpi	r25, 0xE8	; 232
     fa4:	dc f3       	brlt	.-10     	; 0xf9c <__divsf3_pse+0x6a>
     fa6:	86 95       	lsr	r24
     fa8:	77 95       	ror	r23
     faa:	67 95       	ror	r22
     fac:	b7 95       	ror	r27
     fae:	f7 95       	ror	r31
     fb0:	9f 5f       	subi	r25, 0xFF	; 255
     fb2:	c9 f7       	brne	.-14     	; 0xfa6 <__divsf3_pse+0x74>
     fb4:	88 0f       	add	r24, r24
     fb6:	91 1d       	adc	r25, r1
     fb8:	96 95       	lsr	r25
     fba:	87 95       	ror	r24
     fbc:	97 f9       	bld	r25, 7
     fbe:	08 95       	ret
     fc0:	e1 e0       	ldi	r30, 0x01	; 1
     fc2:	66 0f       	add	r22, r22
     fc4:	77 1f       	adc	r23, r23
     fc6:	88 1f       	adc	r24, r24
     fc8:	bb 1f       	adc	r27, r27
     fca:	62 17       	cp	r22, r18
     fcc:	73 07       	cpc	r23, r19
     fce:	84 07       	cpc	r24, r20
     fd0:	ba 07       	cpc	r27, r26
     fd2:	20 f0       	brcs	.+8      	; 0xfdc <__divsf3_pse+0xaa>
     fd4:	62 1b       	sub	r22, r18
     fd6:	73 0b       	sbc	r23, r19
     fd8:	84 0b       	sbc	r24, r20
     fda:	ba 0b       	sbc	r27, r26
     fdc:	ee 1f       	adc	r30, r30
     fde:	88 f7       	brcc	.-30     	; 0xfc2 <__divsf3_pse+0x90>
     fe0:	e0 95       	com	r30
     fe2:	08 95       	ret

00000fe4 <__fixsfsi>:
     fe4:	04 d0       	rcall	.+8      	; 0xfee <__fixunssfsi>
     fe6:	68 94       	set
     fe8:	b1 11       	cpse	r27, r1
     fea:	fe c0       	rjmp	.+508    	; 0x11e8 <__fp_szero>
     fec:	08 95       	ret

00000fee <__fixunssfsi>:
     fee:	e1 d0       	rcall	.+450    	; 0x11b2 <__fp_splitA>
     ff0:	88 f0       	brcs	.+34     	; 0x1014 <__fixunssfsi+0x26>
     ff2:	9f 57       	subi	r25, 0x7F	; 127
     ff4:	90 f0       	brcs	.+36     	; 0x101a <__fixunssfsi+0x2c>
     ff6:	b9 2f       	mov	r27, r25
     ff8:	99 27       	eor	r25, r25
     ffa:	b7 51       	subi	r27, 0x17	; 23
     ffc:	a0 f0       	brcs	.+40     	; 0x1026 <__fixunssfsi+0x38>
     ffe:	d1 f0       	breq	.+52     	; 0x1034 <__fixunssfsi+0x46>
    1000:	66 0f       	add	r22, r22
    1002:	77 1f       	adc	r23, r23
    1004:	88 1f       	adc	r24, r24
    1006:	99 1f       	adc	r25, r25
    1008:	1a f0       	brmi	.+6      	; 0x1010 <__fixunssfsi+0x22>
    100a:	ba 95       	dec	r27
    100c:	c9 f7       	brne	.-14     	; 0x1000 <__fixunssfsi+0x12>
    100e:	12 c0       	rjmp	.+36     	; 0x1034 <__fixunssfsi+0x46>
    1010:	b1 30       	cpi	r27, 0x01	; 1
    1012:	81 f0       	breq	.+32     	; 0x1034 <__fixunssfsi+0x46>
    1014:	e8 d0       	rcall	.+464    	; 0x11e6 <__fp_zero>
    1016:	b1 e0       	ldi	r27, 0x01	; 1
    1018:	08 95       	ret
    101a:	e5 c0       	rjmp	.+458    	; 0x11e6 <__fp_zero>
    101c:	67 2f       	mov	r22, r23
    101e:	78 2f       	mov	r23, r24
    1020:	88 27       	eor	r24, r24
    1022:	b8 5f       	subi	r27, 0xF8	; 248
    1024:	39 f0       	breq	.+14     	; 0x1034 <__fixunssfsi+0x46>
    1026:	b9 3f       	cpi	r27, 0xF9	; 249
    1028:	cc f3       	brlt	.-14     	; 0x101c <__fixunssfsi+0x2e>
    102a:	86 95       	lsr	r24
    102c:	77 95       	ror	r23
    102e:	67 95       	ror	r22
    1030:	b3 95       	inc	r27
    1032:	d9 f7       	brne	.-10     	; 0x102a <__fixunssfsi+0x3c>
    1034:	3e f4       	brtc	.+14     	; 0x1044 <__fixunssfsi+0x56>
    1036:	90 95       	com	r25
    1038:	80 95       	com	r24
    103a:	70 95       	com	r23
    103c:	61 95       	neg	r22
    103e:	7f 4f       	sbci	r23, 0xFF	; 255
    1040:	8f 4f       	sbci	r24, 0xFF	; 255
    1042:	9f 4f       	sbci	r25, 0xFF	; 255
    1044:	08 95       	ret

00001046 <__floatunsisf>:
    1046:	e8 94       	clt
    1048:	09 c0       	rjmp	.+18     	; 0x105c <__floatsisf+0x12>

0000104a <__floatsisf>:
    104a:	97 fb       	bst	r25, 7
    104c:	3e f4       	brtc	.+14     	; 0x105c <__floatsisf+0x12>
    104e:	90 95       	com	r25
    1050:	80 95       	com	r24
    1052:	70 95       	com	r23
    1054:	61 95       	neg	r22
    1056:	7f 4f       	sbci	r23, 0xFF	; 255
    1058:	8f 4f       	sbci	r24, 0xFF	; 255
    105a:	9f 4f       	sbci	r25, 0xFF	; 255
    105c:	99 23       	and	r25, r25
    105e:	a9 f0       	breq	.+42     	; 0x108a <__floatsisf+0x40>
    1060:	f9 2f       	mov	r31, r25
    1062:	96 e9       	ldi	r25, 0x96	; 150
    1064:	bb 27       	eor	r27, r27
    1066:	93 95       	inc	r25
    1068:	f6 95       	lsr	r31
    106a:	87 95       	ror	r24
    106c:	77 95       	ror	r23
    106e:	67 95       	ror	r22
    1070:	b7 95       	ror	r27
    1072:	f1 11       	cpse	r31, r1
    1074:	f8 cf       	rjmp	.-16     	; 0x1066 <__floatsisf+0x1c>
    1076:	fa f4       	brpl	.+62     	; 0x10b6 <__floatsisf+0x6c>
    1078:	bb 0f       	add	r27, r27
    107a:	11 f4       	brne	.+4      	; 0x1080 <__floatsisf+0x36>
    107c:	60 ff       	sbrs	r22, 0
    107e:	1b c0       	rjmp	.+54     	; 0x10b6 <__floatsisf+0x6c>
    1080:	6f 5f       	subi	r22, 0xFF	; 255
    1082:	7f 4f       	sbci	r23, 0xFF	; 255
    1084:	8f 4f       	sbci	r24, 0xFF	; 255
    1086:	9f 4f       	sbci	r25, 0xFF	; 255
    1088:	16 c0       	rjmp	.+44     	; 0x10b6 <__floatsisf+0x6c>
    108a:	88 23       	and	r24, r24
    108c:	11 f0       	breq	.+4      	; 0x1092 <__floatsisf+0x48>
    108e:	96 e9       	ldi	r25, 0x96	; 150
    1090:	11 c0       	rjmp	.+34     	; 0x10b4 <__floatsisf+0x6a>
    1092:	77 23       	and	r23, r23
    1094:	21 f0       	breq	.+8      	; 0x109e <__floatsisf+0x54>
    1096:	9e e8       	ldi	r25, 0x8E	; 142
    1098:	87 2f       	mov	r24, r23
    109a:	76 2f       	mov	r23, r22
    109c:	05 c0       	rjmp	.+10     	; 0x10a8 <__floatsisf+0x5e>
    109e:	66 23       	and	r22, r22
    10a0:	71 f0       	breq	.+28     	; 0x10be <__floatsisf+0x74>
    10a2:	96 e8       	ldi	r25, 0x86	; 134
    10a4:	86 2f       	mov	r24, r22
    10a6:	70 e0       	ldi	r23, 0x00	; 0
    10a8:	60 e0       	ldi	r22, 0x00	; 0
    10aa:	2a f0       	brmi	.+10     	; 0x10b6 <__floatsisf+0x6c>
    10ac:	9a 95       	dec	r25
    10ae:	66 0f       	add	r22, r22
    10b0:	77 1f       	adc	r23, r23
    10b2:	88 1f       	adc	r24, r24
    10b4:	da f7       	brpl	.-10     	; 0x10ac <__floatsisf+0x62>
    10b6:	88 0f       	add	r24, r24
    10b8:	96 95       	lsr	r25
    10ba:	87 95       	ror	r24
    10bc:	97 f9       	bld	r25, 7
    10be:	08 95       	ret

000010c0 <__fp_cmp>:
    10c0:	99 0f       	add	r25, r25
    10c2:	00 08       	sbc	r0, r0
    10c4:	55 0f       	add	r21, r21
    10c6:	aa 0b       	sbc	r26, r26
    10c8:	e0 e8       	ldi	r30, 0x80	; 128
    10ca:	fe ef       	ldi	r31, 0xFE	; 254
    10cc:	16 16       	cp	r1, r22
    10ce:	17 06       	cpc	r1, r23
    10d0:	e8 07       	cpc	r30, r24
    10d2:	f9 07       	cpc	r31, r25
    10d4:	c0 f0       	brcs	.+48     	; 0x1106 <__fp_cmp+0x46>
    10d6:	12 16       	cp	r1, r18
    10d8:	13 06       	cpc	r1, r19
    10da:	e4 07       	cpc	r30, r20
    10dc:	f5 07       	cpc	r31, r21
    10de:	98 f0       	brcs	.+38     	; 0x1106 <__fp_cmp+0x46>
    10e0:	62 1b       	sub	r22, r18
    10e2:	73 0b       	sbc	r23, r19
    10e4:	84 0b       	sbc	r24, r20
    10e6:	95 0b       	sbc	r25, r21
    10e8:	39 f4       	brne	.+14     	; 0x10f8 <__fp_cmp+0x38>
    10ea:	0a 26       	eor	r0, r26
    10ec:	61 f0       	breq	.+24     	; 0x1106 <__fp_cmp+0x46>
    10ee:	23 2b       	or	r18, r19
    10f0:	24 2b       	or	r18, r20
    10f2:	25 2b       	or	r18, r21
    10f4:	21 f4       	brne	.+8      	; 0x10fe <__fp_cmp+0x3e>
    10f6:	08 95       	ret
    10f8:	0a 26       	eor	r0, r26
    10fa:	09 f4       	brne	.+2      	; 0x10fe <__fp_cmp+0x3e>
    10fc:	a1 40       	sbci	r26, 0x01	; 1
    10fe:	a6 95       	lsr	r26
    1100:	8f ef       	ldi	r24, 0xFF	; 255
    1102:	81 1d       	adc	r24, r1
    1104:	81 1d       	adc	r24, r1
    1106:	08 95       	ret

00001108 <__fp_inf>:
    1108:	97 f9       	bld	r25, 7
    110a:	9f 67       	ori	r25, 0x7F	; 127
    110c:	80 e8       	ldi	r24, 0x80	; 128
    110e:	70 e0       	ldi	r23, 0x00	; 0
    1110:	60 e0       	ldi	r22, 0x00	; 0
    1112:	08 95       	ret

00001114 <__fp_nan>:
    1114:	9f ef       	ldi	r25, 0xFF	; 255
    1116:	80 ec       	ldi	r24, 0xC0	; 192
    1118:	08 95       	ret

0000111a <__fp_powser>:
    111a:	df 93       	push	r29
    111c:	cf 93       	push	r28
    111e:	1f 93       	push	r17
    1120:	0f 93       	push	r16
    1122:	ff 92       	push	r15
    1124:	ef 92       	push	r14
    1126:	df 92       	push	r13
    1128:	7b 01       	movw	r14, r22
    112a:	8c 01       	movw	r16, r24
    112c:	68 94       	set
    112e:	05 c0       	rjmp	.+10     	; 0x113a <__fp_powser+0x20>
    1130:	da 2e       	mov	r13, r26
    1132:	ef 01       	movw	r28, r30
    1134:	76 d0       	rcall	.+236    	; 0x1222 <__mulsf3x>
    1136:	fe 01       	movw	r30, r28
    1138:	e8 94       	clt
    113a:	a5 91       	lpm	r26, Z+
    113c:	25 91       	lpm	r18, Z+
    113e:	35 91       	lpm	r19, Z+
    1140:	45 91       	lpm	r20, Z+
    1142:	55 91       	lpm	r21, Z+
    1144:	ae f3       	brts	.-22     	; 0x1130 <__fp_powser+0x16>
    1146:	ef 01       	movw	r28, r30
    1148:	2c de       	rcall	.-936    	; 0xda2 <__addsf3x>
    114a:	fe 01       	movw	r30, r28
    114c:	97 01       	movw	r18, r14
    114e:	a8 01       	movw	r20, r16
    1150:	da 94       	dec	r13
    1152:	79 f7       	brne	.-34     	; 0x1132 <__fp_powser+0x18>
    1154:	df 90       	pop	r13
    1156:	ef 90       	pop	r14
    1158:	ff 90       	pop	r15
    115a:	0f 91       	pop	r16
    115c:	1f 91       	pop	r17
    115e:	cf 91       	pop	r28
    1160:	df 91       	pop	r29
    1162:	08 95       	ret

00001164 <__fp_pscA>:
    1164:	00 24       	eor	r0, r0
    1166:	0a 94       	dec	r0
    1168:	16 16       	cp	r1, r22
    116a:	17 06       	cpc	r1, r23
    116c:	18 06       	cpc	r1, r24
    116e:	09 06       	cpc	r0, r25
    1170:	08 95       	ret

00001172 <__fp_pscB>:
    1172:	00 24       	eor	r0, r0
    1174:	0a 94       	dec	r0
    1176:	12 16       	cp	r1, r18
    1178:	13 06       	cpc	r1, r19
    117a:	14 06       	cpc	r1, r20
    117c:	05 06       	cpc	r0, r21
    117e:	08 95       	ret

00001180 <__fp_round>:
    1180:	09 2e       	mov	r0, r25
    1182:	03 94       	inc	r0
    1184:	00 0c       	add	r0, r0
    1186:	11 f4       	brne	.+4      	; 0x118c <__fp_round+0xc>
    1188:	88 23       	and	r24, r24
    118a:	52 f0       	brmi	.+20     	; 0x11a0 <__fp_round+0x20>
    118c:	bb 0f       	add	r27, r27
    118e:	40 f4       	brcc	.+16     	; 0x11a0 <__fp_round+0x20>
    1190:	bf 2b       	or	r27, r31
    1192:	11 f4       	brne	.+4      	; 0x1198 <__fp_round+0x18>
    1194:	60 ff       	sbrs	r22, 0
    1196:	04 c0       	rjmp	.+8      	; 0x11a0 <__fp_round+0x20>
    1198:	6f 5f       	subi	r22, 0xFF	; 255
    119a:	7f 4f       	sbci	r23, 0xFF	; 255
    119c:	8f 4f       	sbci	r24, 0xFF	; 255
    119e:	9f 4f       	sbci	r25, 0xFF	; 255
    11a0:	08 95       	ret

000011a2 <__fp_split3>:
    11a2:	57 fd       	sbrc	r21, 7
    11a4:	90 58       	subi	r25, 0x80	; 128
    11a6:	44 0f       	add	r20, r20
    11a8:	55 1f       	adc	r21, r21
    11aa:	59 f0       	breq	.+22     	; 0x11c2 <__fp_splitA+0x10>
    11ac:	5f 3f       	cpi	r21, 0xFF	; 255
    11ae:	71 f0       	breq	.+28     	; 0x11cc <__fp_splitA+0x1a>
    11b0:	47 95       	ror	r20

000011b2 <__fp_splitA>:
    11b2:	88 0f       	add	r24, r24
    11b4:	97 fb       	bst	r25, 7
    11b6:	99 1f       	adc	r25, r25
    11b8:	61 f0       	breq	.+24     	; 0x11d2 <__fp_splitA+0x20>
    11ba:	9f 3f       	cpi	r25, 0xFF	; 255
    11bc:	79 f0       	breq	.+30     	; 0x11dc <__fp_splitA+0x2a>
    11be:	87 95       	ror	r24
    11c0:	08 95       	ret
    11c2:	12 16       	cp	r1, r18
    11c4:	13 06       	cpc	r1, r19
    11c6:	14 06       	cpc	r1, r20
    11c8:	55 1f       	adc	r21, r21
    11ca:	f2 cf       	rjmp	.-28     	; 0x11b0 <__fp_split3+0xe>
    11cc:	46 95       	lsr	r20
    11ce:	f1 df       	rcall	.-30     	; 0x11b2 <__fp_splitA>
    11d0:	08 c0       	rjmp	.+16     	; 0x11e2 <__fp_splitA+0x30>
    11d2:	16 16       	cp	r1, r22
    11d4:	17 06       	cpc	r1, r23
    11d6:	18 06       	cpc	r1, r24
    11d8:	99 1f       	adc	r25, r25
    11da:	f1 cf       	rjmp	.-30     	; 0x11be <__fp_splitA+0xc>
    11dc:	86 95       	lsr	r24
    11de:	71 05       	cpc	r23, r1
    11e0:	61 05       	cpc	r22, r1
    11e2:	08 94       	sec
    11e4:	08 95       	ret

000011e6 <__fp_zero>:
    11e6:	e8 94       	clt

000011e8 <__fp_szero>:
    11e8:	bb 27       	eor	r27, r27
    11ea:	66 27       	eor	r22, r22
    11ec:	77 27       	eor	r23, r23
    11ee:	cb 01       	movw	r24, r22
    11f0:	97 f9       	bld	r25, 7
    11f2:	08 95       	ret

000011f4 <__gesf2>:
    11f4:	65 df       	rcall	.-310    	; 0x10c0 <__fp_cmp>
    11f6:	08 f4       	brcc	.+2      	; 0x11fa <__gesf2+0x6>
    11f8:	8f ef       	ldi	r24, 0xFF	; 255
    11fa:	08 95       	ret

000011fc <inverse>:
    11fc:	9b 01       	movw	r18, r22
    11fe:	ac 01       	movw	r20, r24
    1200:	60 e0       	ldi	r22, 0x00	; 0
    1202:	70 e0       	ldi	r23, 0x00	; 0
    1204:	80 e8       	ldi	r24, 0x80	; 128
    1206:	9f e3       	ldi	r25, 0x3F	; 63
    1208:	85 ce       	rjmp	.-758    	; 0xf14 <__divsf3>

0000120a <__mulsf3>:
    120a:	0b d0       	rcall	.+22     	; 0x1222 <__mulsf3x>
    120c:	b9 cf       	rjmp	.-142    	; 0x1180 <__fp_round>
    120e:	aa df       	rcall	.-172    	; 0x1164 <__fp_pscA>
    1210:	28 f0       	brcs	.+10     	; 0x121c <__mulsf3+0x12>
    1212:	af df       	rcall	.-162    	; 0x1172 <__fp_pscB>
    1214:	18 f0       	brcs	.+6      	; 0x121c <__mulsf3+0x12>
    1216:	95 23       	and	r25, r21
    1218:	09 f0       	breq	.+2      	; 0x121c <__mulsf3+0x12>
    121a:	76 cf       	rjmp	.-276    	; 0x1108 <__fp_inf>
    121c:	7b cf       	rjmp	.-266    	; 0x1114 <__fp_nan>
    121e:	11 24       	eor	r1, r1
    1220:	e3 cf       	rjmp	.-58     	; 0x11e8 <__fp_szero>

00001222 <__mulsf3x>:
    1222:	bf df       	rcall	.-130    	; 0x11a2 <__fp_split3>
    1224:	a0 f3       	brcs	.-24     	; 0x120e <__mulsf3+0x4>

00001226 <__mulsf3_pse>:
    1226:	95 9f       	mul	r25, r21
    1228:	d1 f3       	breq	.-12     	; 0x121e <__mulsf3+0x14>
    122a:	95 0f       	add	r25, r21
    122c:	50 e0       	ldi	r21, 0x00	; 0
    122e:	55 1f       	adc	r21, r21
    1230:	62 9f       	mul	r22, r18
    1232:	f0 01       	movw	r30, r0
    1234:	72 9f       	mul	r23, r18
    1236:	bb 27       	eor	r27, r27
    1238:	f0 0d       	add	r31, r0
    123a:	b1 1d       	adc	r27, r1
    123c:	63 9f       	mul	r22, r19
    123e:	aa 27       	eor	r26, r26
    1240:	f0 0d       	add	r31, r0
    1242:	b1 1d       	adc	r27, r1
    1244:	aa 1f       	adc	r26, r26
    1246:	64 9f       	mul	r22, r20
    1248:	66 27       	eor	r22, r22
    124a:	b0 0d       	add	r27, r0
    124c:	a1 1d       	adc	r26, r1
    124e:	66 1f       	adc	r22, r22
    1250:	82 9f       	mul	r24, r18
    1252:	22 27       	eor	r18, r18
    1254:	b0 0d       	add	r27, r0
    1256:	a1 1d       	adc	r26, r1
    1258:	62 1f       	adc	r22, r18
    125a:	73 9f       	mul	r23, r19
    125c:	b0 0d       	add	r27, r0
    125e:	a1 1d       	adc	r26, r1
    1260:	62 1f       	adc	r22, r18
    1262:	83 9f       	mul	r24, r19
    1264:	a0 0d       	add	r26, r0
    1266:	61 1d       	adc	r22, r1
    1268:	22 1f       	adc	r18, r18
    126a:	74 9f       	mul	r23, r20
    126c:	33 27       	eor	r19, r19
    126e:	a0 0d       	add	r26, r0
    1270:	61 1d       	adc	r22, r1
    1272:	23 1f       	adc	r18, r19
    1274:	84 9f       	mul	r24, r20
    1276:	60 0d       	add	r22, r0
    1278:	21 1d       	adc	r18, r1
    127a:	82 2f       	mov	r24, r18
    127c:	76 2f       	mov	r23, r22
    127e:	6a 2f       	mov	r22, r26
    1280:	11 24       	eor	r1, r1
    1282:	9f 57       	subi	r25, 0x7F	; 127
    1284:	50 40       	sbci	r21, 0x00	; 0
    1286:	8a f0       	brmi	.+34     	; 0x12aa <__mulsf3_pse+0x84>
    1288:	e1 f0       	breq	.+56     	; 0x12c2 <__mulsf3_pse+0x9c>
    128a:	88 23       	and	r24, r24
    128c:	4a f0       	brmi	.+18     	; 0x12a0 <__mulsf3_pse+0x7a>
    128e:	ee 0f       	add	r30, r30
    1290:	ff 1f       	adc	r31, r31
    1292:	bb 1f       	adc	r27, r27
    1294:	66 1f       	adc	r22, r22
    1296:	77 1f       	adc	r23, r23
    1298:	88 1f       	adc	r24, r24
    129a:	91 50       	subi	r25, 0x01	; 1
    129c:	50 40       	sbci	r21, 0x00	; 0
    129e:	a9 f7       	brne	.-22     	; 0x128a <__mulsf3_pse+0x64>
    12a0:	9e 3f       	cpi	r25, 0xFE	; 254
    12a2:	51 05       	cpc	r21, r1
    12a4:	70 f0       	brcs	.+28     	; 0x12c2 <__mulsf3_pse+0x9c>
    12a6:	30 cf       	rjmp	.-416    	; 0x1108 <__fp_inf>
    12a8:	9f cf       	rjmp	.-194    	; 0x11e8 <__fp_szero>
    12aa:	5f 3f       	cpi	r21, 0xFF	; 255
    12ac:	ec f3       	brlt	.-6      	; 0x12a8 <__mulsf3_pse+0x82>
    12ae:	98 3e       	cpi	r25, 0xE8	; 232
    12b0:	dc f3       	brlt	.-10     	; 0x12a8 <__mulsf3_pse+0x82>
    12b2:	86 95       	lsr	r24
    12b4:	77 95       	ror	r23
    12b6:	67 95       	ror	r22
    12b8:	b7 95       	ror	r27
    12ba:	f7 95       	ror	r31
    12bc:	e7 95       	ror	r30
    12be:	9f 5f       	subi	r25, 0xFF	; 255
    12c0:	c1 f7       	brne	.-16     	; 0x12b2 <__mulsf3_pse+0x8c>
    12c2:	fe 2b       	or	r31, r30
    12c4:	88 0f       	add	r24, r24
    12c6:	91 1d       	adc	r25, r1
    12c8:	96 95       	lsr	r25
    12ca:	87 95       	ror	r24
    12cc:	97 f9       	bld	r25, 7
    12ce:	08 95       	ret

000012d0 <square>:
    12d0:	9b 01       	movw	r18, r22
    12d2:	ac 01       	movw	r20, r24
    12d4:	9a cf       	rjmp	.-204    	; 0x120a <__mulsf3>

000012d6 <vfprintf>:
    12d6:	a3 e1       	ldi	r26, 0x13	; 19
    12d8:	b0 e0       	ldi	r27, 0x00	; 0
    12da:	e0 e7       	ldi	r30, 0x70	; 112
    12dc:	f9 e0       	ldi	r31, 0x09	; 9
    12de:	57 c3       	rjmp	.+1710   	; 0x198e <__prologue_saves__>
    12e0:	7c 01       	movw	r14, r24
    12e2:	1b 01       	movw	r2, r22
    12e4:	6a 01       	movw	r12, r20
    12e6:	fc 01       	movw	r30, r24
    12e8:	17 82       	std	Z+7, r1	; 0x07
    12ea:	16 82       	std	Z+6, r1	; 0x06
    12ec:	83 81       	ldd	r24, Z+3	; 0x03
    12ee:	81 ff       	sbrs	r24, 1
    12f0:	49 c3       	rjmp	.+1682   	; 0x1984 <vfprintf+0x6ae>
    12f2:	be 01       	movw	r22, r28
    12f4:	6f 5f       	subi	r22, 0xFF	; 255
    12f6:	7f 4f       	sbci	r23, 0xFF	; 255
    12f8:	4b 01       	movw	r8, r22
    12fa:	f7 01       	movw	r30, r14
    12fc:	93 81       	ldd	r25, Z+3	; 0x03
    12fe:	f1 01       	movw	r30, r2
    1300:	93 fd       	sbrc	r25, 3
    1302:	85 91       	lpm	r24, Z+
    1304:	93 ff       	sbrs	r25, 3
    1306:	81 91       	ld	r24, Z+
    1308:	1f 01       	movw	r2, r30
    130a:	88 23       	and	r24, r24
    130c:	09 f4       	brne	.+2      	; 0x1310 <vfprintf+0x3a>
    130e:	36 c3       	rjmp	.+1644   	; 0x197c <vfprintf+0x6a6>
    1310:	85 32       	cpi	r24, 0x25	; 37
    1312:	39 f4       	brne	.+14     	; 0x1322 <vfprintf+0x4c>
    1314:	93 fd       	sbrc	r25, 3
    1316:	85 91       	lpm	r24, Z+
    1318:	93 ff       	sbrs	r25, 3
    131a:	81 91       	ld	r24, Z+
    131c:	1f 01       	movw	r2, r30
    131e:	85 32       	cpi	r24, 0x25	; 37
    1320:	31 f4       	brne	.+12     	; 0x132e <vfprintf+0x58>
    1322:	b7 01       	movw	r22, r14
    1324:	90 e0       	ldi	r25, 0x00	; 0
    1326:	58 d4       	rcall	.+2224   	; 0x1bd8 <fputc>
    1328:	56 01       	movw	r10, r12
    132a:	65 01       	movw	r12, r10
    132c:	e6 cf       	rjmp	.-52     	; 0x12fa <vfprintf+0x24>
    132e:	10 e0       	ldi	r17, 0x00	; 0
    1330:	51 2c       	mov	r5, r1
    1332:	20 e0       	ldi	r18, 0x00	; 0
    1334:	20 32       	cpi	r18, 0x20	; 32
    1336:	a0 f4       	brcc	.+40     	; 0x1360 <vfprintf+0x8a>
    1338:	8b 32       	cpi	r24, 0x2B	; 43
    133a:	69 f0       	breq	.+26     	; 0x1356 <vfprintf+0x80>
    133c:	30 f4       	brcc	.+12     	; 0x134a <vfprintf+0x74>
    133e:	80 32       	cpi	r24, 0x20	; 32
    1340:	59 f0       	breq	.+22     	; 0x1358 <vfprintf+0x82>
    1342:	83 32       	cpi	r24, 0x23	; 35
    1344:	69 f4       	brne	.+26     	; 0x1360 <vfprintf+0x8a>
    1346:	20 61       	ori	r18, 0x10	; 16
    1348:	2c c0       	rjmp	.+88     	; 0x13a2 <vfprintf+0xcc>
    134a:	8d 32       	cpi	r24, 0x2D	; 45
    134c:	39 f0       	breq	.+14     	; 0x135c <vfprintf+0x86>
    134e:	80 33       	cpi	r24, 0x30	; 48
    1350:	39 f4       	brne	.+14     	; 0x1360 <vfprintf+0x8a>
    1352:	21 60       	ori	r18, 0x01	; 1
    1354:	26 c0       	rjmp	.+76     	; 0x13a2 <vfprintf+0xcc>
    1356:	22 60       	ori	r18, 0x02	; 2
    1358:	24 60       	ori	r18, 0x04	; 4
    135a:	23 c0       	rjmp	.+70     	; 0x13a2 <vfprintf+0xcc>
    135c:	28 60       	ori	r18, 0x08	; 8
    135e:	21 c0       	rjmp	.+66     	; 0x13a2 <vfprintf+0xcc>
    1360:	27 fd       	sbrc	r18, 7
    1362:	27 c0       	rjmp	.+78     	; 0x13b2 <vfprintf+0xdc>
    1364:	30 ed       	ldi	r19, 0xD0	; 208
    1366:	38 0f       	add	r19, r24
    1368:	3a 30       	cpi	r19, 0x0A	; 10
    136a:	78 f4       	brcc	.+30     	; 0x138a <vfprintf+0xb4>
    136c:	26 ff       	sbrs	r18, 6
    136e:	06 c0       	rjmp	.+12     	; 0x137c <vfprintf+0xa6>
    1370:	fa e0       	ldi	r31, 0x0A	; 10
    1372:	1f 9f       	mul	r17, r31
    1374:	30 0d       	add	r19, r0
    1376:	11 24       	eor	r1, r1
    1378:	13 2f       	mov	r17, r19
    137a:	13 c0       	rjmp	.+38     	; 0x13a2 <vfprintf+0xcc>
    137c:	6a e0       	ldi	r22, 0x0A	; 10
    137e:	56 9e       	mul	r5, r22
    1380:	30 0d       	add	r19, r0
    1382:	11 24       	eor	r1, r1
    1384:	53 2e       	mov	r5, r19
    1386:	20 62       	ori	r18, 0x20	; 32
    1388:	0c c0       	rjmp	.+24     	; 0x13a2 <vfprintf+0xcc>
    138a:	8e 32       	cpi	r24, 0x2E	; 46
    138c:	21 f4       	brne	.+8      	; 0x1396 <vfprintf+0xc0>
    138e:	26 fd       	sbrc	r18, 6
    1390:	f5 c2       	rjmp	.+1514   	; 0x197c <vfprintf+0x6a6>
    1392:	20 64       	ori	r18, 0x40	; 64
    1394:	06 c0       	rjmp	.+12     	; 0x13a2 <vfprintf+0xcc>
    1396:	8c 36       	cpi	r24, 0x6C	; 108
    1398:	11 f4       	brne	.+4      	; 0x139e <vfprintf+0xc8>
    139a:	20 68       	ori	r18, 0x80	; 128
    139c:	02 c0       	rjmp	.+4      	; 0x13a2 <vfprintf+0xcc>
    139e:	88 36       	cpi	r24, 0x68	; 104
    13a0:	41 f4       	brne	.+16     	; 0x13b2 <vfprintf+0xdc>
    13a2:	f1 01       	movw	r30, r2
    13a4:	93 fd       	sbrc	r25, 3
    13a6:	85 91       	lpm	r24, Z+
    13a8:	93 ff       	sbrs	r25, 3
    13aa:	81 91       	ld	r24, Z+
    13ac:	1f 01       	movw	r2, r30
    13ae:	81 11       	cpse	r24, r1
    13b0:	c1 cf       	rjmp	.-126    	; 0x1334 <vfprintf+0x5e>
    13b2:	9b eb       	ldi	r25, 0xBB	; 187
    13b4:	98 0f       	add	r25, r24
    13b6:	93 30       	cpi	r25, 0x03	; 3
    13b8:	18 f4       	brcc	.+6      	; 0x13c0 <vfprintf+0xea>
    13ba:	20 61       	ori	r18, 0x10	; 16
    13bc:	80 5e       	subi	r24, 0xE0	; 224
    13be:	06 c0       	rjmp	.+12     	; 0x13cc <vfprintf+0xf6>
    13c0:	9b e9       	ldi	r25, 0x9B	; 155
    13c2:	98 0f       	add	r25, r24
    13c4:	93 30       	cpi	r25, 0x03	; 3
    13c6:	08 f0       	brcs	.+2      	; 0x13ca <vfprintf+0xf4>
    13c8:	9a c1       	rjmp	.+820    	; 0x16fe <vfprintf+0x428>
    13ca:	2f 7e       	andi	r18, 0xEF	; 239
    13cc:	26 ff       	sbrs	r18, 6
    13ce:	16 e0       	ldi	r17, 0x06	; 6
    13d0:	2f 73       	andi	r18, 0x3F	; 63
    13d2:	72 2e       	mov	r7, r18
    13d4:	85 36       	cpi	r24, 0x65	; 101
    13d6:	21 f4       	brne	.+8      	; 0x13e0 <vfprintf+0x10a>
    13d8:	f2 2f       	mov	r31, r18
    13da:	f0 64       	ori	r31, 0x40	; 64
    13dc:	7f 2e       	mov	r7, r31
    13de:	08 c0       	rjmp	.+16     	; 0x13f0 <vfprintf+0x11a>
    13e0:	86 36       	cpi	r24, 0x66	; 102
    13e2:	21 f4       	brne	.+8      	; 0x13ec <vfprintf+0x116>
    13e4:	62 2f       	mov	r22, r18
    13e6:	60 68       	ori	r22, 0x80	; 128
    13e8:	76 2e       	mov	r7, r22
    13ea:	02 c0       	rjmp	.+4      	; 0x13f0 <vfprintf+0x11a>
    13ec:	11 11       	cpse	r17, r1
    13ee:	11 50       	subi	r17, 0x01	; 1
    13f0:	77 fe       	sbrs	r7, 7
    13f2:	07 c0       	rjmp	.+14     	; 0x1402 <vfprintf+0x12c>
    13f4:	1c 33       	cpi	r17, 0x3C	; 60
    13f6:	48 f4       	brcc	.+18     	; 0x140a <vfprintf+0x134>
    13f8:	44 24       	eor	r4, r4
    13fa:	43 94       	inc	r4
    13fc:	41 0e       	add	r4, r17
    13fe:	27 e0       	ldi	r18, 0x07	; 7
    1400:	0b c0       	rjmp	.+22     	; 0x1418 <vfprintf+0x142>
    1402:	18 30       	cpi	r17, 0x08	; 8
    1404:	30 f4       	brcc	.+12     	; 0x1412 <vfprintf+0x13c>
    1406:	21 2f       	mov	r18, r17
    1408:	06 c0       	rjmp	.+12     	; 0x1416 <vfprintf+0x140>
    140a:	27 e0       	ldi	r18, 0x07	; 7
    140c:	4c e3       	ldi	r20, 0x3C	; 60
    140e:	44 2e       	mov	r4, r20
    1410:	03 c0       	rjmp	.+6      	; 0x1418 <vfprintf+0x142>
    1412:	27 e0       	ldi	r18, 0x07	; 7
    1414:	17 e0       	ldi	r17, 0x07	; 7
    1416:	41 2c       	mov	r4, r1
    1418:	56 01       	movw	r10, r12
    141a:	74 e0       	ldi	r23, 0x04	; 4
    141c:	a7 0e       	add	r10, r23
    141e:	b1 1c       	adc	r11, r1
    1420:	f6 01       	movw	r30, r12
    1422:	60 81       	ld	r22, Z
    1424:	71 81       	ldd	r23, Z+1	; 0x01
    1426:	82 81       	ldd	r24, Z+2	; 0x02
    1428:	93 81       	ldd	r25, Z+3	; 0x03
    142a:	04 2d       	mov	r16, r4
    142c:	a4 01       	movw	r20, r8
    142e:	e6 d2       	rcall	.+1484   	; 0x19fc <__ftoa_engine>
    1430:	6c 01       	movw	r12, r24
    1432:	09 81       	ldd	r16, Y+1	; 0x01
    1434:	00 ff       	sbrs	r16, 0
    1436:	02 c0       	rjmp	.+4      	; 0x143c <vfprintf+0x166>
    1438:	03 ff       	sbrs	r16, 3
    143a:	06 c0       	rjmp	.+12     	; 0x1448 <vfprintf+0x172>
    143c:	71 fc       	sbrc	r7, 1
    143e:	07 c0       	rjmp	.+14     	; 0x144e <vfprintf+0x178>
    1440:	72 fc       	sbrc	r7, 2
    1442:	08 c0       	rjmp	.+16     	; 0x1454 <vfprintf+0x17e>
    1444:	61 2c       	mov	r6, r1
    1446:	08 c0       	rjmp	.+16     	; 0x1458 <vfprintf+0x182>
    1448:	3d e2       	ldi	r19, 0x2D	; 45
    144a:	63 2e       	mov	r6, r19
    144c:	05 c0       	rjmp	.+10     	; 0x1458 <vfprintf+0x182>
    144e:	2b e2       	ldi	r18, 0x2B	; 43
    1450:	62 2e       	mov	r6, r18
    1452:	02 c0       	rjmp	.+4      	; 0x1458 <vfprintf+0x182>
    1454:	90 e2       	ldi	r25, 0x20	; 32
    1456:	69 2e       	mov	r6, r25
    1458:	80 2f       	mov	r24, r16
    145a:	8c 70       	andi	r24, 0x0C	; 12
    145c:	81 f1       	breq	.+96     	; 0x14be <vfprintf+0x1e8>
    145e:	66 20       	and	r6, r6
    1460:	11 f0       	breq	.+4      	; 0x1466 <vfprintf+0x190>
    1462:	84 e0       	ldi	r24, 0x04	; 4
    1464:	01 c0       	rjmp	.+2      	; 0x1468 <vfprintf+0x192>
    1466:	83 e0       	ldi	r24, 0x03	; 3
    1468:	85 15       	cp	r24, r5
    146a:	10 f0       	brcs	.+4      	; 0x1470 <vfprintf+0x19a>
    146c:	51 2c       	mov	r5, r1
    146e:	0a c0       	rjmp	.+20     	; 0x1484 <vfprintf+0x1ae>
    1470:	58 1a       	sub	r5, r24
    1472:	73 fc       	sbrc	r7, 3
    1474:	07 c0       	rjmp	.+14     	; 0x1484 <vfprintf+0x1ae>
    1476:	b7 01       	movw	r22, r14
    1478:	80 e2       	ldi	r24, 0x20	; 32
    147a:	90 e0       	ldi	r25, 0x00	; 0
    147c:	ad d3       	rcall	.+1882   	; 0x1bd8 <fputc>
    147e:	5a 94       	dec	r5
    1480:	d1 f7       	brne	.-12     	; 0x1476 <vfprintf+0x1a0>
    1482:	f4 cf       	rjmp	.-24     	; 0x146c <vfprintf+0x196>
    1484:	66 20       	and	r6, r6
    1486:	21 f0       	breq	.+8      	; 0x1490 <vfprintf+0x1ba>
    1488:	b7 01       	movw	r22, r14
    148a:	86 2d       	mov	r24, r6
    148c:	90 e0       	ldi	r25, 0x00	; 0
    148e:	a4 d3       	rcall	.+1864   	; 0x1bd8 <fputc>
    1490:	03 fd       	sbrc	r16, 3
    1492:	03 c0       	rjmp	.+6      	; 0x149a <vfprintf+0x1c4>
    1494:	06 e6       	ldi	r16, 0x66	; 102
    1496:	10 e0       	ldi	r17, 0x00	; 0
    1498:	02 c0       	rjmp	.+4      	; 0x149e <vfprintf+0x1c8>
    149a:	02 e6       	ldi	r16, 0x62	; 98
    149c:	10 e0       	ldi	r17, 0x00	; 0
    149e:	f7 2d       	mov	r31, r7
    14a0:	f0 71       	andi	r31, 0x10	; 16
    14a2:	7f 2e       	mov	r7, r31
    14a4:	f8 01       	movw	r30, r16
    14a6:	84 91       	lpm	r24, Z
    14a8:	88 23       	and	r24, r24
    14aa:	09 f4       	brne	.+2      	; 0x14ae <vfprintf+0x1d8>
    14ac:	5e c2       	rjmp	.+1212   	; 0x196a <vfprintf+0x694>
    14ae:	71 10       	cpse	r7, r1
    14b0:	80 52       	subi	r24, 0x20	; 32
    14b2:	b7 01       	movw	r22, r14
    14b4:	90 e0       	ldi	r25, 0x00	; 0
    14b6:	90 d3       	rcall	.+1824   	; 0x1bd8 <fputc>
    14b8:	0f 5f       	subi	r16, 0xFF	; 255
    14ba:	1f 4f       	sbci	r17, 0xFF	; 255
    14bc:	f3 cf       	rjmp	.-26     	; 0x14a4 <vfprintf+0x1ce>
    14be:	77 fe       	sbrs	r7, 7
    14c0:	0f c0       	rjmp	.+30     	; 0x14e0 <vfprintf+0x20a>
    14c2:	4c 0c       	add	r4, r12
    14c4:	04 ff       	sbrs	r16, 4
    14c6:	04 c0       	rjmp	.+8      	; 0x14d0 <vfprintf+0x1fa>
    14c8:	8a 81       	ldd	r24, Y+2	; 0x02
    14ca:	81 33       	cpi	r24, 0x31	; 49
    14cc:	09 f4       	brne	.+2      	; 0x14d0 <vfprintf+0x1fa>
    14ce:	4a 94       	dec	r4
    14d0:	14 14       	cp	r1, r4
    14d2:	74 f5       	brge	.+92     	; 0x1530 <vfprintf+0x25a>
    14d4:	f8 e0       	ldi	r31, 0x08	; 8
    14d6:	f4 15       	cp	r31, r4
    14d8:	78 f5       	brcc	.+94     	; 0x1538 <vfprintf+0x262>
    14da:	88 e0       	ldi	r24, 0x08	; 8
    14dc:	48 2e       	mov	r4, r24
    14de:	2c c0       	rjmp	.+88     	; 0x1538 <vfprintf+0x262>
    14e0:	76 fc       	sbrc	r7, 6
    14e2:	2a c0       	rjmp	.+84     	; 0x1538 <vfprintf+0x262>
    14e4:	81 2f       	mov	r24, r17
    14e6:	90 e0       	ldi	r25, 0x00	; 0
    14e8:	8c 15       	cp	r24, r12
    14ea:	9d 05       	cpc	r25, r13
    14ec:	9c f0       	brlt	.+38     	; 0x1514 <vfprintf+0x23e>
    14ee:	6c ef       	ldi	r22, 0xFC	; 252
    14f0:	c6 16       	cp	r12, r22
    14f2:	6f ef       	ldi	r22, 0xFF	; 255
    14f4:	d6 06       	cpc	r13, r22
    14f6:	74 f0       	brlt	.+28     	; 0x1514 <vfprintf+0x23e>
    14f8:	77 2d       	mov	r23, r7
    14fa:	70 68       	ori	r23, 0x80	; 128
    14fc:	77 2e       	mov	r7, r23
    14fe:	0a c0       	rjmp	.+20     	; 0x1514 <vfprintf+0x23e>
    1500:	e2 e0       	ldi	r30, 0x02	; 2
    1502:	f0 e0       	ldi	r31, 0x00	; 0
    1504:	ec 0f       	add	r30, r28
    1506:	fd 1f       	adc	r31, r29
    1508:	e1 0f       	add	r30, r17
    150a:	f1 1d       	adc	r31, r1
    150c:	80 81       	ld	r24, Z
    150e:	80 33       	cpi	r24, 0x30	; 48
    1510:	19 f4       	brne	.+6      	; 0x1518 <vfprintf+0x242>
    1512:	11 50       	subi	r17, 0x01	; 1
    1514:	11 11       	cpse	r17, r1
    1516:	f4 cf       	rjmp	.-24     	; 0x1500 <vfprintf+0x22a>
    1518:	77 fe       	sbrs	r7, 7
    151a:	0e c0       	rjmp	.+28     	; 0x1538 <vfprintf+0x262>
    151c:	44 24       	eor	r4, r4
    151e:	43 94       	inc	r4
    1520:	41 0e       	add	r4, r17
    1522:	81 2f       	mov	r24, r17
    1524:	90 e0       	ldi	r25, 0x00	; 0
    1526:	c8 16       	cp	r12, r24
    1528:	d9 06       	cpc	r13, r25
    152a:	2c f4       	brge	.+10     	; 0x1536 <vfprintf+0x260>
    152c:	1c 19       	sub	r17, r12
    152e:	04 c0       	rjmp	.+8      	; 0x1538 <vfprintf+0x262>
    1530:	44 24       	eor	r4, r4
    1532:	43 94       	inc	r4
    1534:	01 c0       	rjmp	.+2      	; 0x1538 <vfprintf+0x262>
    1536:	10 e0       	ldi	r17, 0x00	; 0
    1538:	77 fe       	sbrs	r7, 7
    153a:	07 c0       	rjmp	.+14     	; 0x154a <vfprintf+0x274>
    153c:	1c 14       	cp	r1, r12
    153e:	1d 04       	cpc	r1, r13
    1540:	3c f4       	brge	.+14     	; 0x1550 <vfprintf+0x27a>
    1542:	96 01       	movw	r18, r12
    1544:	2f 5f       	subi	r18, 0xFF	; 255
    1546:	3f 4f       	sbci	r19, 0xFF	; 255
    1548:	05 c0       	rjmp	.+10     	; 0x1554 <vfprintf+0x27e>
    154a:	25 e0       	ldi	r18, 0x05	; 5
    154c:	30 e0       	ldi	r19, 0x00	; 0
    154e:	02 c0       	rjmp	.+4      	; 0x1554 <vfprintf+0x27e>
    1550:	21 e0       	ldi	r18, 0x01	; 1
    1552:	30 e0       	ldi	r19, 0x00	; 0
    1554:	66 20       	and	r6, r6
    1556:	11 f0       	breq	.+4      	; 0x155c <vfprintf+0x286>
    1558:	2f 5f       	subi	r18, 0xFF	; 255
    155a:	3f 4f       	sbci	r19, 0xFF	; 255
    155c:	11 23       	and	r17, r17
    155e:	31 f0       	breq	.+12     	; 0x156c <vfprintf+0x296>
    1560:	41 2f       	mov	r20, r17
    1562:	50 e0       	ldi	r21, 0x00	; 0
    1564:	4f 5f       	subi	r20, 0xFF	; 255
    1566:	5f 4f       	sbci	r21, 0xFF	; 255
    1568:	24 0f       	add	r18, r20
    156a:	35 1f       	adc	r19, r21
    156c:	45 2d       	mov	r20, r5
    156e:	50 e0       	ldi	r21, 0x00	; 0
    1570:	24 17       	cp	r18, r20
    1572:	35 07       	cpc	r19, r21
    1574:	14 f4       	brge	.+4      	; 0x157a <vfprintf+0x2a4>
    1576:	52 1a       	sub	r5, r18
    1578:	01 c0       	rjmp	.+2      	; 0x157c <vfprintf+0x2a6>
    157a:	51 2c       	mov	r5, r1
    157c:	87 2d       	mov	r24, r7
    157e:	89 70       	andi	r24, 0x09	; 9
    1580:	41 f4       	brne	.+16     	; 0x1592 <vfprintf+0x2bc>
    1582:	55 20       	and	r5, r5
    1584:	31 f0       	breq	.+12     	; 0x1592 <vfprintf+0x2bc>
    1586:	b7 01       	movw	r22, r14
    1588:	80 e2       	ldi	r24, 0x20	; 32
    158a:	90 e0       	ldi	r25, 0x00	; 0
    158c:	25 d3       	rcall	.+1610   	; 0x1bd8 <fputc>
    158e:	5a 94       	dec	r5
    1590:	f8 cf       	rjmp	.-16     	; 0x1582 <vfprintf+0x2ac>
    1592:	66 20       	and	r6, r6
    1594:	21 f0       	breq	.+8      	; 0x159e <vfprintf+0x2c8>
    1596:	b7 01       	movw	r22, r14
    1598:	86 2d       	mov	r24, r6
    159a:	90 e0       	ldi	r25, 0x00	; 0
    159c:	1d d3       	rcall	.+1594   	; 0x1bd8 <fputc>
    159e:	73 fc       	sbrc	r7, 3
    15a0:	08 c0       	rjmp	.+16     	; 0x15b2 <vfprintf+0x2dc>
    15a2:	55 20       	and	r5, r5
    15a4:	31 f0       	breq	.+12     	; 0x15b2 <vfprintf+0x2dc>
    15a6:	b7 01       	movw	r22, r14
    15a8:	80 e3       	ldi	r24, 0x30	; 48
    15aa:	90 e0       	ldi	r25, 0x00	; 0
    15ac:	15 d3       	rcall	.+1578   	; 0x1bd8 <fputc>
    15ae:	5a 94       	dec	r5
    15b0:	f8 cf       	rjmp	.-16     	; 0x15a2 <vfprintf+0x2cc>
    15b2:	77 fe       	sbrs	r7, 7
    15b4:	5d c0       	rjmp	.+186    	; 0x1670 <vfprintf+0x39a>
    15b6:	9c 2d       	mov	r25, r12
    15b8:	8d 2d       	mov	r24, r13
    15ba:	d7 fe       	sbrs	r13, 7
    15bc:	02 c0       	rjmp	.+4      	; 0x15c2 <vfprintf+0x2ec>
    15be:	90 e0       	ldi	r25, 0x00	; 0
    15c0:	80 e0       	ldi	r24, 0x00	; 0
    15c2:	69 2e       	mov	r6, r25
    15c4:	78 2e       	mov	r7, r24
    15c6:	40 e0       	ldi	r20, 0x00	; 0
    15c8:	50 e0       	ldi	r21, 0x00	; 0
    15ca:	c6 01       	movw	r24, r12
    15cc:	84 19       	sub	r24, r4
    15ce:	91 09       	sbc	r25, r1
    15d0:	9d 87       	std	Y+13, r25	; 0x0d
    15d2:	8c 87       	std	Y+12, r24	; 0x0c
    15d4:	96 01       	movw	r18, r12
    15d6:	26 19       	sub	r18, r6
    15d8:	37 09       	sbc	r19, r7
    15da:	28 0d       	add	r18, r8
    15dc:	39 1d       	adc	r19, r9
    15de:	81 2f       	mov	r24, r17
    15e0:	90 e0       	ldi	r25, 0x00	; 0
    15e2:	ee 27       	eor	r30, r30
    15e4:	ff 27       	eor	r31, r31
    15e6:	e8 1b       	sub	r30, r24
    15e8:	f9 0b       	sbc	r31, r25
    15ea:	ff 87       	std	Y+15, r31	; 0x0f
    15ec:	ee 87       	std	Y+14, r30	; 0x0e
    15ee:	ff ef       	ldi	r31, 0xFF	; 255
    15f0:	6f 16       	cp	r6, r31
    15f2:	7f 06       	cpc	r7, r31
    15f4:	61 f4       	brne	.+24     	; 0x160e <vfprintf+0x338>
    15f6:	b7 01       	movw	r22, r14
    15f8:	8e e2       	ldi	r24, 0x2E	; 46
    15fa:	90 e0       	ldi	r25, 0x00	; 0
    15fc:	2b 8b       	std	Y+19, r18	; 0x13
    15fe:	3a 8b       	std	Y+18, r19	; 0x12
    1600:	48 8b       	std	Y+16, r20	; 0x10
    1602:	59 8b       	std	Y+17, r21	; 0x11
    1604:	e9 d2       	rcall	.+1490   	; 0x1bd8 <fputc>
    1606:	59 89       	ldd	r21, Y+17	; 0x11
    1608:	48 89       	ldd	r20, Y+16	; 0x10
    160a:	3a 89       	ldd	r19, Y+18	; 0x12
    160c:	2b 89       	ldd	r18, Y+19	; 0x13
    160e:	c6 14       	cp	r12, r6
    1610:	d7 04       	cpc	r13, r7
    1612:	54 f0       	brlt	.+20     	; 0x1628 <vfprintf+0x352>
    1614:	6c 85       	ldd	r22, Y+12	; 0x0c
    1616:	7d 85       	ldd	r23, Y+13	; 0x0d
    1618:	66 15       	cp	r22, r6
    161a:	77 05       	cpc	r23, r7
    161c:	2c f4       	brge	.+10     	; 0x1628 <vfprintf+0x352>
    161e:	f9 01       	movw	r30, r18
    1620:	e4 0f       	add	r30, r20
    1622:	f5 1f       	adc	r31, r21
    1624:	81 81       	ldd	r24, Z+1	; 0x01
    1626:	01 c0       	rjmp	.+2      	; 0x162a <vfprintf+0x354>
    1628:	80 e3       	ldi	r24, 0x30	; 48
    162a:	71 e0       	ldi	r23, 0x01	; 1
    162c:	67 1a       	sub	r6, r23
    162e:	71 08       	sbc	r7, r1
    1630:	4f 5f       	subi	r20, 0xFF	; 255
    1632:	5f 4f       	sbci	r21, 0xFF	; 255
    1634:	ee 85       	ldd	r30, Y+14	; 0x0e
    1636:	ff 85       	ldd	r31, Y+15	; 0x0f
    1638:	6e 16       	cp	r6, r30
    163a:	7f 06       	cpc	r7, r31
    163c:	64 f0       	brlt	.+24     	; 0x1656 <vfprintf+0x380>
    163e:	b7 01       	movw	r22, r14
    1640:	90 e0       	ldi	r25, 0x00	; 0
    1642:	2b 8b       	std	Y+19, r18	; 0x13
    1644:	3a 8b       	std	Y+18, r19	; 0x12
    1646:	48 8b       	std	Y+16, r20	; 0x10
    1648:	59 8b       	std	Y+17, r21	; 0x11
    164a:	c6 d2       	rcall	.+1420   	; 0x1bd8 <fputc>
    164c:	2b 89       	ldd	r18, Y+19	; 0x13
    164e:	3a 89       	ldd	r19, Y+18	; 0x12
    1650:	48 89       	ldd	r20, Y+16	; 0x10
    1652:	59 89       	ldd	r21, Y+17	; 0x11
    1654:	cc cf       	rjmp	.-104    	; 0x15ee <vfprintf+0x318>
    1656:	6c 14       	cp	r6, r12
    1658:	7d 04       	cpc	r7, r13
    165a:	39 f4       	brne	.+14     	; 0x166a <vfprintf+0x394>
    165c:	9a 81       	ldd	r25, Y+2	; 0x02
    165e:	96 33       	cpi	r25, 0x36	; 54
    1660:	18 f4       	brcc	.+6      	; 0x1668 <vfprintf+0x392>
    1662:	95 33       	cpi	r25, 0x35	; 53
    1664:	11 f4       	brne	.+4      	; 0x166a <vfprintf+0x394>
    1666:	04 ff       	sbrs	r16, 4
    1668:	81 e3       	ldi	r24, 0x31	; 49
    166a:	b7 01       	movw	r22, r14
    166c:	90 e0       	ldi	r25, 0x00	; 0
    166e:	45 c0       	rjmp	.+138    	; 0x16fa <vfprintf+0x424>
    1670:	8a 81       	ldd	r24, Y+2	; 0x02
    1672:	81 33       	cpi	r24, 0x31	; 49
    1674:	09 f0       	breq	.+2      	; 0x1678 <vfprintf+0x3a2>
    1676:	0f 7e       	andi	r16, 0xEF	; 239
    1678:	b7 01       	movw	r22, r14
    167a:	90 e0       	ldi	r25, 0x00	; 0
    167c:	ad d2       	rcall	.+1370   	; 0x1bd8 <fputc>
    167e:	11 11       	cpse	r17, r1
    1680:	05 c0       	rjmp	.+10     	; 0x168c <vfprintf+0x3b6>
    1682:	74 fe       	sbrs	r7, 4
    1684:	16 c0       	rjmp	.+44     	; 0x16b2 <vfprintf+0x3dc>
    1686:	85 e4       	ldi	r24, 0x45	; 69
    1688:	90 e0       	ldi	r25, 0x00	; 0
    168a:	15 c0       	rjmp	.+42     	; 0x16b6 <vfprintf+0x3e0>
    168c:	b7 01       	movw	r22, r14
    168e:	8e e2       	ldi	r24, 0x2E	; 46
    1690:	90 e0       	ldi	r25, 0x00	; 0
    1692:	a2 d2       	rcall	.+1348   	; 0x1bd8 <fputc>
    1694:	82 e0       	ldi	r24, 0x02	; 2
    1696:	66 24       	eor	r6, r6
    1698:	63 94       	inc	r6
    169a:	68 0e       	add	r6, r24
    169c:	f4 01       	movw	r30, r8
    169e:	e8 0f       	add	r30, r24
    16a0:	f1 1d       	adc	r31, r1
    16a2:	80 81       	ld	r24, Z
    16a4:	b7 01       	movw	r22, r14
    16a6:	90 e0       	ldi	r25, 0x00	; 0
    16a8:	97 d2       	rcall	.+1326   	; 0x1bd8 <fputc>
    16aa:	11 50       	subi	r17, 0x01	; 1
    16ac:	51 f3       	breq	.-44     	; 0x1682 <vfprintf+0x3ac>
    16ae:	86 2d       	mov	r24, r6
    16b0:	f2 cf       	rjmp	.-28     	; 0x1696 <vfprintf+0x3c0>
    16b2:	85 e6       	ldi	r24, 0x65	; 101
    16b4:	90 e0       	ldi	r25, 0x00	; 0
    16b6:	b7 01       	movw	r22, r14
    16b8:	8f d2       	rcall	.+1310   	; 0x1bd8 <fputc>
    16ba:	d7 fc       	sbrc	r13, 7
    16bc:	05 c0       	rjmp	.+10     	; 0x16c8 <vfprintf+0x3f2>
    16be:	c1 14       	cp	r12, r1
    16c0:	d1 04       	cpc	r13, r1
    16c2:	39 f4       	brne	.+14     	; 0x16d2 <vfprintf+0x3fc>
    16c4:	04 ff       	sbrs	r16, 4
    16c6:	05 c0       	rjmp	.+10     	; 0x16d2 <vfprintf+0x3fc>
    16c8:	d1 94       	neg	r13
    16ca:	c1 94       	neg	r12
    16cc:	d1 08       	sbc	r13, r1
    16ce:	8d e2       	ldi	r24, 0x2D	; 45
    16d0:	01 c0       	rjmp	.+2      	; 0x16d4 <vfprintf+0x3fe>
    16d2:	8b e2       	ldi	r24, 0x2B	; 43
    16d4:	b7 01       	movw	r22, r14
    16d6:	90 e0       	ldi	r25, 0x00	; 0
    16d8:	7f d2       	rcall	.+1278   	; 0x1bd8 <fputc>
    16da:	80 e3       	ldi	r24, 0x30	; 48
    16dc:	6a e0       	ldi	r22, 0x0A	; 10
    16de:	c6 16       	cp	r12, r22
    16e0:	d1 04       	cpc	r13, r1
    16e2:	2c f0       	brlt	.+10     	; 0x16ee <vfprintf+0x418>
    16e4:	8f 5f       	subi	r24, 0xFF	; 255
    16e6:	fa e0       	ldi	r31, 0x0A	; 10
    16e8:	cf 1a       	sub	r12, r31
    16ea:	d1 08       	sbc	r13, r1
    16ec:	f7 cf       	rjmp	.-18     	; 0x16dc <vfprintf+0x406>
    16ee:	b7 01       	movw	r22, r14
    16f0:	90 e0       	ldi	r25, 0x00	; 0
    16f2:	72 d2       	rcall	.+1252   	; 0x1bd8 <fputc>
    16f4:	b7 01       	movw	r22, r14
    16f6:	c6 01       	movw	r24, r12
    16f8:	c0 96       	adiw	r24, 0x30	; 48
    16fa:	6e d2       	rcall	.+1244   	; 0x1bd8 <fputc>
    16fc:	36 c1       	rjmp	.+620    	; 0x196a <vfprintf+0x694>
    16fe:	83 36       	cpi	r24, 0x63	; 99
    1700:	31 f0       	breq	.+12     	; 0x170e <vfprintf+0x438>
    1702:	83 37       	cpi	r24, 0x73	; 115
    1704:	79 f0       	breq	.+30     	; 0x1724 <vfprintf+0x44e>
    1706:	83 35       	cpi	r24, 0x53	; 83
    1708:	09 f0       	breq	.+2      	; 0x170c <vfprintf+0x436>
    170a:	54 c0       	rjmp	.+168    	; 0x17b4 <vfprintf+0x4de>
    170c:	20 c0       	rjmp	.+64     	; 0x174e <vfprintf+0x478>
    170e:	56 01       	movw	r10, r12
    1710:	72 e0       	ldi	r23, 0x02	; 2
    1712:	a7 0e       	add	r10, r23
    1714:	b1 1c       	adc	r11, r1
    1716:	f6 01       	movw	r30, r12
    1718:	80 81       	ld	r24, Z
    171a:	89 83       	std	Y+1, r24	; 0x01
    171c:	01 e0       	ldi	r16, 0x01	; 1
    171e:	10 e0       	ldi	r17, 0x00	; 0
    1720:	64 01       	movw	r12, r8
    1722:	13 c0       	rjmp	.+38     	; 0x174a <vfprintf+0x474>
    1724:	56 01       	movw	r10, r12
    1726:	f2 e0       	ldi	r31, 0x02	; 2
    1728:	af 0e       	add	r10, r31
    172a:	b1 1c       	adc	r11, r1
    172c:	f6 01       	movw	r30, r12
    172e:	c0 80       	ld	r12, Z
    1730:	d1 80       	ldd	r13, Z+1	; 0x01
    1732:	26 ff       	sbrs	r18, 6
    1734:	03 c0       	rjmp	.+6      	; 0x173c <vfprintf+0x466>
    1736:	61 2f       	mov	r22, r17
    1738:	70 e0       	ldi	r23, 0x00	; 0
    173a:	02 c0       	rjmp	.+4      	; 0x1740 <vfprintf+0x46a>
    173c:	6f ef       	ldi	r22, 0xFF	; 255
    173e:	7f ef       	ldi	r23, 0xFF	; 255
    1740:	c6 01       	movw	r24, r12
    1742:	2b 8b       	std	Y+19, r18	; 0x13
    1744:	3e d2       	rcall	.+1148   	; 0x1bc2 <strnlen>
    1746:	8c 01       	movw	r16, r24
    1748:	2b 89       	ldd	r18, Y+19	; 0x13
    174a:	2f 77       	andi	r18, 0x7F	; 127
    174c:	14 c0       	rjmp	.+40     	; 0x1776 <vfprintf+0x4a0>
    174e:	56 01       	movw	r10, r12
    1750:	f2 e0       	ldi	r31, 0x02	; 2
    1752:	af 0e       	add	r10, r31
    1754:	b1 1c       	adc	r11, r1
    1756:	f6 01       	movw	r30, r12
    1758:	c0 80       	ld	r12, Z
    175a:	d1 80       	ldd	r13, Z+1	; 0x01
    175c:	26 ff       	sbrs	r18, 6
    175e:	03 c0       	rjmp	.+6      	; 0x1766 <vfprintf+0x490>
    1760:	61 2f       	mov	r22, r17
    1762:	70 e0       	ldi	r23, 0x00	; 0
    1764:	02 c0       	rjmp	.+4      	; 0x176a <vfprintf+0x494>
    1766:	6f ef       	ldi	r22, 0xFF	; 255
    1768:	7f ef       	ldi	r23, 0xFF	; 255
    176a:	c6 01       	movw	r24, r12
    176c:	2b 8b       	std	Y+19, r18	; 0x13
    176e:	1e d2       	rcall	.+1084   	; 0x1bac <strnlen_P>
    1770:	8c 01       	movw	r16, r24
    1772:	2b 89       	ldd	r18, Y+19	; 0x13
    1774:	20 68       	ori	r18, 0x80	; 128
    1776:	72 2e       	mov	r7, r18
    1778:	23 fd       	sbrc	r18, 3
    177a:	18 c0       	rjmp	.+48     	; 0x17ac <vfprintf+0x4d6>
    177c:	85 2d       	mov	r24, r5
    177e:	90 e0       	ldi	r25, 0x00	; 0
    1780:	08 17       	cp	r16, r24
    1782:	19 07       	cpc	r17, r25
    1784:	98 f4       	brcc	.+38     	; 0x17ac <vfprintf+0x4d6>
    1786:	b7 01       	movw	r22, r14
    1788:	80 e2       	ldi	r24, 0x20	; 32
    178a:	90 e0       	ldi	r25, 0x00	; 0
    178c:	25 d2       	rcall	.+1098   	; 0x1bd8 <fputc>
    178e:	5a 94       	dec	r5
    1790:	f5 cf       	rjmp	.-22     	; 0x177c <vfprintf+0x4a6>
    1792:	f6 01       	movw	r30, r12
    1794:	77 fc       	sbrc	r7, 7
    1796:	85 91       	lpm	r24, Z+
    1798:	77 fe       	sbrs	r7, 7
    179a:	81 91       	ld	r24, Z+
    179c:	6f 01       	movw	r12, r30
    179e:	b7 01       	movw	r22, r14
    17a0:	90 e0       	ldi	r25, 0x00	; 0
    17a2:	1a d2       	rcall	.+1076   	; 0x1bd8 <fputc>
    17a4:	51 10       	cpse	r5, r1
    17a6:	5a 94       	dec	r5
    17a8:	01 50       	subi	r16, 0x01	; 1
    17aa:	11 09       	sbc	r17, r1
    17ac:	01 15       	cp	r16, r1
    17ae:	11 05       	cpc	r17, r1
    17b0:	81 f7       	brne	.-32     	; 0x1792 <vfprintf+0x4bc>
    17b2:	db c0       	rjmp	.+438    	; 0x196a <vfprintf+0x694>
    17b4:	84 36       	cpi	r24, 0x64	; 100
    17b6:	11 f0       	breq	.+4      	; 0x17bc <vfprintf+0x4e6>
    17b8:	89 36       	cpi	r24, 0x69	; 105
    17ba:	49 f5       	brne	.+82     	; 0x180e <vfprintf+0x538>
    17bc:	56 01       	movw	r10, r12
    17be:	27 ff       	sbrs	r18, 7
    17c0:	09 c0       	rjmp	.+18     	; 0x17d4 <vfprintf+0x4fe>
    17c2:	f4 e0       	ldi	r31, 0x04	; 4
    17c4:	af 0e       	add	r10, r31
    17c6:	b1 1c       	adc	r11, r1
    17c8:	f6 01       	movw	r30, r12
    17ca:	60 81       	ld	r22, Z
    17cc:	71 81       	ldd	r23, Z+1	; 0x01
    17ce:	82 81       	ldd	r24, Z+2	; 0x02
    17d0:	93 81       	ldd	r25, Z+3	; 0x03
    17d2:	0a c0       	rjmp	.+20     	; 0x17e8 <vfprintf+0x512>
    17d4:	f2 e0       	ldi	r31, 0x02	; 2
    17d6:	af 0e       	add	r10, r31
    17d8:	b1 1c       	adc	r11, r1
    17da:	f6 01       	movw	r30, r12
    17dc:	60 81       	ld	r22, Z
    17de:	71 81       	ldd	r23, Z+1	; 0x01
    17e0:	88 27       	eor	r24, r24
    17e2:	77 fd       	sbrc	r23, 7
    17e4:	80 95       	com	r24
    17e6:	98 2f       	mov	r25, r24
    17e8:	02 2f       	mov	r16, r18
    17ea:	0f 76       	andi	r16, 0x6F	; 111
    17ec:	97 ff       	sbrs	r25, 7
    17ee:	08 c0       	rjmp	.+16     	; 0x1800 <vfprintf+0x52a>
    17f0:	90 95       	com	r25
    17f2:	80 95       	com	r24
    17f4:	70 95       	com	r23
    17f6:	61 95       	neg	r22
    17f8:	7f 4f       	sbci	r23, 0xFF	; 255
    17fa:	8f 4f       	sbci	r24, 0xFF	; 255
    17fc:	9f 4f       	sbci	r25, 0xFF	; 255
    17fe:	00 68       	ori	r16, 0x80	; 128
    1800:	2a e0       	ldi	r18, 0x0A	; 10
    1802:	30 e0       	ldi	r19, 0x00	; 0
    1804:	a4 01       	movw	r20, r8
    1806:	2b d2       	rcall	.+1110   	; 0x1c5e <__ultoa_invert>
    1808:	c8 2e       	mov	r12, r24
    180a:	c8 18       	sub	r12, r8
    180c:	3d c0       	rjmp	.+122    	; 0x1888 <vfprintf+0x5b2>
    180e:	02 2f       	mov	r16, r18
    1810:	85 37       	cpi	r24, 0x75	; 117
    1812:	21 f4       	brne	.+8      	; 0x181c <vfprintf+0x546>
    1814:	0f 7e       	andi	r16, 0xEF	; 239
    1816:	2a e0       	ldi	r18, 0x0A	; 10
    1818:	30 e0       	ldi	r19, 0x00	; 0
    181a:	1d c0       	rjmp	.+58     	; 0x1856 <vfprintf+0x580>
    181c:	09 7f       	andi	r16, 0xF9	; 249
    181e:	8f 36       	cpi	r24, 0x6F	; 111
    1820:	91 f0       	breq	.+36     	; 0x1846 <vfprintf+0x570>
    1822:	18 f4       	brcc	.+6      	; 0x182a <vfprintf+0x554>
    1824:	88 35       	cpi	r24, 0x58	; 88
    1826:	59 f0       	breq	.+22     	; 0x183e <vfprintf+0x568>
    1828:	a9 c0       	rjmp	.+338    	; 0x197c <vfprintf+0x6a6>
    182a:	80 37       	cpi	r24, 0x70	; 112
    182c:	19 f0       	breq	.+6      	; 0x1834 <vfprintf+0x55e>
    182e:	88 37       	cpi	r24, 0x78	; 120
    1830:	11 f0       	breq	.+4      	; 0x1836 <vfprintf+0x560>
    1832:	a4 c0       	rjmp	.+328    	; 0x197c <vfprintf+0x6a6>
    1834:	00 61       	ori	r16, 0x10	; 16
    1836:	04 ff       	sbrs	r16, 4
    1838:	09 c0       	rjmp	.+18     	; 0x184c <vfprintf+0x576>
    183a:	04 60       	ori	r16, 0x04	; 4
    183c:	07 c0       	rjmp	.+14     	; 0x184c <vfprintf+0x576>
    183e:	24 ff       	sbrs	r18, 4
    1840:	08 c0       	rjmp	.+16     	; 0x1852 <vfprintf+0x57c>
    1842:	06 60       	ori	r16, 0x06	; 6
    1844:	06 c0       	rjmp	.+12     	; 0x1852 <vfprintf+0x57c>
    1846:	28 e0       	ldi	r18, 0x08	; 8
    1848:	30 e0       	ldi	r19, 0x00	; 0
    184a:	05 c0       	rjmp	.+10     	; 0x1856 <vfprintf+0x580>
    184c:	20 e1       	ldi	r18, 0x10	; 16
    184e:	30 e0       	ldi	r19, 0x00	; 0
    1850:	02 c0       	rjmp	.+4      	; 0x1856 <vfprintf+0x580>
    1852:	20 e1       	ldi	r18, 0x10	; 16
    1854:	32 e0       	ldi	r19, 0x02	; 2
    1856:	56 01       	movw	r10, r12
    1858:	07 ff       	sbrs	r16, 7
    185a:	09 c0       	rjmp	.+18     	; 0x186e <vfprintf+0x598>
    185c:	f4 e0       	ldi	r31, 0x04	; 4
    185e:	af 0e       	add	r10, r31
    1860:	b1 1c       	adc	r11, r1
    1862:	f6 01       	movw	r30, r12
    1864:	60 81       	ld	r22, Z
    1866:	71 81       	ldd	r23, Z+1	; 0x01
    1868:	82 81       	ldd	r24, Z+2	; 0x02
    186a:	93 81       	ldd	r25, Z+3	; 0x03
    186c:	08 c0       	rjmp	.+16     	; 0x187e <vfprintf+0x5a8>
    186e:	f2 e0       	ldi	r31, 0x02	; 2
    1870:	af 0e       	add	r10, r31
    1872:	b1 1c       	adc	r11, r1
    1874:	f6 01       	movw	r30, r12
    1876:	60 81       	ld	r22, Z
    1878:	71 81       	ldd	r23, Z+1	; 0x01
    187a:	80 e0       	ldi	r24, 0x00	; 0
    187c:	90 e0       	ldi	r25, 0x00	; 0
    187e:	a4 01       	movw	r20, r8
    1880:	ee d1       	rcall	.+988    	; 0x1c5e <__ultoa_invert>
    1882:	c8 2e       	mov	r12, r24
    1884:	c8 18       	sub	r12, r8
    1886:	0f 77       	andi	r16, 0x7F	; 127
    1888:	06 ff       	sbrs	r16, 6
    188a:	0b c0       	rjmp	.+22     	; 0x18a2 <vfprintf+0x5cc>
    188c:	20 2f       	mov	r18, r16
    188e:	2e 7f       	andi	r18, 0xFE	; 254
    1890:	c1 16       	cp	r12, r17
    1892:	50 f4       	brcc	.+20     	; 0x18a8 <vfprintf+0x5d2>
    1894:	04 ff       	sbrs	r16, 4
    1896:	0a c0       	rjmp	.+20     	; 0x18ac <vfprintf+0x5d6>
    1898:	02 fd       	sbrc	r16, 2
    189a:	08 c0       	rjmp	.+16     	; 0x18ac <vfprintf+0x5d6>
    189c:	20 2f       	mov	r18, r16
    189e:	2e 7e       	andi	r18, 0xEE	; 238
    18a0:	05 c0       	rjmp	.+10     	; 0x18ac <vfprintf+0x5d6>
    18a2:	dc 2c       	mov	r13, r12
    18a4:	20 2f       	mov	r18, r16
    18a6:	03 c0       	rjmp	.+6      	; 0x18ae <vfprintf+0x5d8>
    18a8:	dc 2c       	mov	r13, r12
    18aa:	01 c0       	rjmp	.+2      	; 0x18ae <vfprintf+0x5d8>
    18ac:	d1 2e       	mov	r13, r17
    18ae:	24 ff       	sbrs	r18, 4
    18b0:	0d c0       	rjmp	.+26     	; 0x18cc <vfprintf+0x5f6>
    18b2:	fe 01       	movw	r30, r28
    18b4:	ec 0d       	add	r30, r12
    18b6:	f1 1d       	adc	r31, r1
    18b8:	80 81       	ld	r24, Z
    18ba:	80 33       	cpi	r24, 0x30	; 48
    18bc:	11 f4       	brne	.+4      	; 0x18c2 <vfprintf+0x5ec>
    18be:	29 7e       	andi	r18, 0xE9	; 233
    18c0:	09 c0       	rjmp	.+18     	; 0x18d4 <vfprintf+0x5fe>
    18c2:	22 ff       	sbrs	r18, 2
    18c4:	06 c0       	rjmp	.+12     	; 0x18d2 <vfprintf+0x5fc>
    18c6:	d3 94       	inc	r13
    18c8:	d3 94       	inc	r13
    18ca:	04 c0       	rjmp	.+8      	; 0x18d4 <vfprintf+0x5fe>
    18cc:	82 2f       	mov	r24, r18
    18ce:	86 78       	andi	r24, 0x86	; 134
    18d0:	09 f0       	breq	.+2      	; 0x18d4 <vfprintf+0x5fe>
    18d2:	d3 94       	inc	r13
    18d4:	23 fd       	sbrc	r18, 3
    18d6:	12 c0       	rjmp	.+36     	; 0x18fc <vfprintf+0x626>
    18d8:	20 ff       	sbrs	r18, 0
    18da:	06 c0       	rjmp	.+12     	; 0x18e8 <vfprintf+0x612>
    18dc:	1c 2d       	mov	r17, r12
    18de:	d5 14       	cp	r13, r5
    18e0:	18 f4       	brcc	.+6      	; 0x18e8 <vfprintf+0x612>
    18e2:	15 0d       	add	r17, r5
    18e4:	1d 19       	sub	r17, r13
    18e6:	d5 2c       	mov	r13, r5
    18e8:	d5 14       	cp	r13, r5
    18ea:	60 f4       	brcc	.+24     	; 0x1904 <vfprintf+0x62e>
    18ec:	b7 01       	movw	r22, r14
    18ee:	80 e2       	ldi	r24, 0x20	; 32
    18f0:	90 e0       	ldi	r25, 0x00	; 0
    18f2:	2b 8b       	std	Y+19, r18	; 0x13
    18f4:	71 d1       	rcall	.+738    	; 0x1bd8 <fputc>
    18f6:	d3 94       	inc	r13
    18f8:	2b 89       	ldd	r18, Y+19	; 0x13
    18fa:	f6 cf       	rjmp	.-20     	; 0x18e8 <vfprintf+0x612>
    18fc:	d5 14       	cp	r13, r5
    18fe:	10 f4       	brcc	.+4      	; 0x1904 <vfprintf+0x62e>
    1900:	5d 18       	sub	r5, r13
    1902:	01 c0       	rjmp	.+2      	; 0x1906 <vfprintf+0x630>
    1904:	51 2c       	mov	r5, r1
    1906:	24 ff       	sbrs	r18, 4
    1908:	11 c0       	rjmp	.+34     	; 0x192c <vfprintf+0x656>
    190a:	b7 01       	movw	r22, r14
    190c:	80 e3       	ldi	r24, 0x30	; 48
    190e:	90 e0       	ldi	r25, 0x00	; 0
    1910:	2b 8b       	std	Y+19, r18	; 0x13
    1912:	62 d1       	rcall	.+708    	; 0x1bd8 <fputc>
    1914:	2b 89       	ldd	r18, Y+19	; 0x13
    1916:	22 ff       	sbrs	r18, 2
    1918:	16 c0       	rjmp	.+44     	; 0x1946 <vfprintf+0x670>
    191a:	21 ff       	sbrs	r18, 1
    191c:	03 c0       	rjmp	.+6      	; 0x1924 <vfprintf+0x64e>
    191e:	88 e5       	ldi	r24, 0x58	; 88
    1920:	90 e0       	ldi	r25, 0x00	; 0
    1922:	02 c0       	rjmp	.+4      	; 0x1928 <vfprintf+0x652>
    1924:	88 e7       	ldi	r24, 0x78	; 120
    1926:	90 e0       	ldi	r25, 0x00	; 0
    1928:	b7 01       	movw	r22, r14
    192a:	0c c0       	rjmp	.+24     	; 0x1944 <vfprintf+0x66e>
    192c:	82 2f       	mov	r24, r18
    192e:	86 78       	andi	r24, 0x86	; 134
    1930:	51 f0       	breq	.+20     	; 0x1946 <vfprintf+0x670>
    1932:	21 fd       	sbrc	r18, 1
    1934:	02 c0       	rjmp	.+4      	; 0x193a <vfprintf+0x664>
    1936:	80 e2       	ldi	r24, 0x20	; 32
    1938:	01 c0       	rjmp	.+2      	; 0x193c <vfprintf+0x666>
    193a:	8b e2       	ldi	r24, 0x2B	; 43
    193c:	27 fd       	sbrc	r18, 7
    193e:	8d e2       	ldi	r24, 0x2D	; 45
    1940:	b7 01       	movw	r22, r14
    1942:	90 e0       	ldi	r25, 0x00	; 0
    1944:	49 d1       	rcall	.+658    	; 0x1bd8 <fputc>
    1946:	c1 16       	cp	r12, r17
    1948:	30 f4       	brcc	.+12     	; 0x1956 <vfprintf+0x680>
    194a:	b7 01       	movw	r22, r14
    194c:	80 e3       	ldi	r24, 0x30	; 48
    194e:	90 e0       	ldi	r25, 0x00	; 0
    1950:	43 d1       	rcall	.+646    	; 0x1bd8 <fputc>
    1952:	11 50       	subi	r17, 0x01	; 1
    1954:	f8 cf       	rjmp	.-16     	; 0x1946 <vfprintf+0x670>
    1956:	ca 94       	dec	r12
    1958:	f4 01       	movw	r30, r8
    195a:	ec 0d       	add	r30, r12
    195c:	f1 1d       	adc	r31, r1
    195e:	80 81       	ld	r24, Z
    1960:	b7 01       	movw	r22, r14
    1962:	90 e0       	ldi	r25, 0x00	; 0
    1964:	39 d1       	rcall	.+626    	; 0x1bd8 <fputc>
    1966:	c1 10       	cpse	r12, r1
    1968:	f6 cf       	rjmp	.-20     	; 0x1956 <vfprintf+0x680>
    196a:	55 20       	and	r5, r5
    196c:	09 f4       	brne	.+2      	; 0x1970 <vfprintf+0x69a>
    196e:	dd cc       	rjmp	.-1606   	; 0x132a <vfprintf+0x54>
    1970:	b7 01       	movw	r22, r14
    1972:	80 e2       	ldi	r24, 0x20	; 32
    1974:	90 e0       	ldi	r25, 0x00	; 0
    1976:	30 d1       	rcall	.+608    	; 0x1bd8 <fputc>
    1978:	5a 94       	dec	r5
    197a:	f7 cf       	rjmp	.-18     	; 0x196a <vfprintf+0x694>
    197c:	f7 01       	movw	r30, r14
    197e:	86 81       	ldd	r24, Z+6	; 0x06
    1980:	97 81       	ldd	r25, Z+7	; 0x07
    1982:	02 c0       	rjmp	.+4      	; 0x1988 <vfprintf+0x6b2>
    1984:	8f ef       	ldi	r24, 0xFF	; 255
    1986:	9f ef       	ldi	r25, 0xFF	; 255
    1988:	63 96       	adiw	r28, 0x13	; 19
    198a:	e2 e1       	ldi	r30, 0x12	; 18
    198c:	1c c0       	rjmp	.+56     	; 0x19c6 <__epilogue_restores__>

0000198e <__prologue_saves__>:
    198e:	2f 92       	push	r2
    1990:	3f 92       	push	r3
    1992:	4f 92       	push	r4
    1994:	5f 92       	push	r5
    1996:	6f 92       	push	r6
    1998:	7f 92       	push	r7
    199a:	8f 92       	push	r8
    199c:	9f 92       	push	r9
    199e:	af 92       	push	r10
    19a0:	bf 92       	push	r11
    19a2:	cf 92       	push	r12
    19a4:	df 92       	push	r13
    19a6:	ef 92       	push	r14
    19a8:	ff 92       	push	r15
    19aa:	0f 93       	push	r16
    19ac:	1f 93       	push	r17
    19ae:	cf 93       	push	r28
    19b0:	df 93       	push	r29
    19b2:	cd b7       	in	r28, 0x3d	; 61
    19b4:	de b7       	in	r29, 0x3e	; 62
    19b6:	ca 1b       	sub	r28, r26
    19b8:	db 0b       	sbc	r29, r27
    19ba:	0f b6       	in	r0, 0x3f	; 63
    19bc:	f8 94       	cli
    19be:	de bf       	out	0x3e, r29	; 62
    19c0:	0f be       	out	0x3f, r0	; 63
    19c2:	cd bf       	out	0x3d, r28	; 61
    19c4:	09 94       	ijmp

000019c6 <__epilogue_restores__>:
    19c6:	2a 88       	ldd	r2, Y+18	; 0x12
    19c8:	39 88       	ldd	r3, Y+17	; 0x11
    19ca:	48 88       	ldd	r4, Y+16	; 0x10
    19cc:	5f 84       	ldd	r5, Y+15	; 0x0f
    19ce:	6e 84       	ldd	r6, Y+14	; 0x0e
    19d0:	7d 84       	ldd	r7, Y+13	; 0x0d
    19d2:	8c 84       	ldd	r8, Y+12	; 0x0c
    19d4:	9b 84       	ldd	r9, Y+11	; 0x0b
    19d6:	aa 84       	ldd	r10, Y+10	; 0x0a
    19d8:	b9 84       	ldd	r11, Y+9	; 0x09
    19da:	c8 84       	ldd	r12, Y+8	; 0x08
    19dc:	df 80       	ldd	r13, Y+7	; 0x07
    19de:	ee 80       	ldd	r14, Y+6	; 0x06
    19e0:	fd 80       	ldd	r15, Y+5	; 0x05
    19e2:	0c 81       	ldd	r16, Y+4	; 0x04
    19e4:	1b 81       	ldd	r17, Y+3	; 0x03
    19e6:	aa 81       	ldd	r26, Y+2	; 0x02
    19e8:	b9 81       	ldd	r27, Y+1	; 0x01
    19ea:	ce 0f       	add	r28, r30
    19ec:	d1 1d       	adc	r29, r1
    19ee:	0f b6       	in	r0, 0x3f	; 63
    19f0:	f8 94       	cli
    19f2:	de bf       	out	0x3e, r29	; 62
    19f4:	0f be       	out	0x3f, r0	; 63
    19f6:	cd bf       	out	0x3d, r28	; 61
    19f8:	ed 01       	movw	r28, r26
    19fa:	08 95       	ret

000019fc <__ftoa_engine>:
    19fc:	28 30       	cpi	r18, 0x08	; 8
    19fe:	08 f0       	brcs	.+2      	; 0x1a02 <__ftoa_engine+0x6>
    1a00:	27 e0       	ldi	r18, 0x07	; 7
    1a02:	33 27       	eor	r19, r19
    1a04:	da 01       	movw	r26, r20
    1a06:	99 0f       	add	r25, r25
    1a08:	31 1d       	adc	r19, r1
    1a0a:	87 fd       	sbrc	r24, 7
    1a0c:	91 60       	ori	r25, 0x01	; 1
    1a0e:	00 96       	adiw	r24, 0x00	; 0
    1a10:	61 05       	cpc	r22, r1
    1a12:	71 05       	cpc	r23, r1
    1a14:	39 f4       	brne	.+14     	; 0x1a24 <__ftoa_engine+0x28>
    1a16:	32 60       	ori	r19, 0x02	; 2
    1a18:	2e 5f       	subi	r18, 0xFE	; 254
    1a1a:	3d 93       	st	X+, r19
    1a1c:	30 e3       	ldi	r19, 0x30	; 48
    1a1e:	2a 95       	dec	r18
    1a20:	e1 f7       	brne	.-8      	; 0x1a1a <__ftoa_engine+0x1e>
    1a22:	08 95       	ret
    1a24:	9f 3f       	cpi	r25, 0xFF	; 255
    1a26:	30 f0       	brcs	.+12     	; 0x1a34 <__ftoa_engine+0x38>
    1a28:	80 38       	cpi	r24, 0x80	; 128
    1a2a:	71 05       	cpc	r23, r1
    1a2c:	61 05       	cpc	r22, r1
    1a2e:	09 f0       	breq	.+2      	; 0x1a32 <__ftoa_engine+0x36>
    1a30:	3c 5f       	subi	r19, 0xFC	; 252
    1a32:	3c 5f       	subi	r19, 0xFC	; 252
    1a34:	3d 93       	st	X+, r19
    1a36:	91 30       	cpi	r25, 0x01	; 1
    1a38:	08 f0       	brcs	.+2      	; 0x1a3c <__ftoa_engine+0x40>
    1a3a:	80 68       	ori	r24, 0x80	; 128
    1a3c:	91 1d       	adc	r25, r1
    1a3e:	df 93       	push	r29
    1a40:	cf 93       	push	r28
    1a42:	1f 93       	push	r17
    1a44:	0f 93       	push	r16
    1a46:	ff 92       	push	r15
    1a48:	ef 92       	push	r14
    1a4a:	19 2f       	mov	r17, r25
    1a4c:	98 7f       	andi	r25, 0xF8	; 248
    1a4e:	96 95       	lsr	r25
    1a50:	e9 2f       	mov	r30, r25
    1a52:	96 95       	lsr	r25
    1a54:	96 95       	lsr	r25
    1a56:	e9 0f       	add	r30, r25
    1a58:	ff 27       	eor	r31, r31
    1a5a:	ec 53       	subi	r30, 0x3C	; 60
    1a5c:	ff 4f       	sbci	r31, 0xFF	; 255
    1a5e:	99 27       	eor	r25, r25
    1a60:	33 27       	eor	r19, r19
    1a62:	ee 24       	eor	r14, r14
    1a64:	ff 24       	eor	r15, r15
    1a66:	a7 01       	movw	r20, r14
    1a68:	e7 01       	movw	r28, r14
    1a6a:	05 90       	lpm	r0, Z+
    1a6c:	08 94       	sec
    1a6e:	07 94       	ror	r0
    1a70:	28 f4       	brcc	.+10     	; 0x1a7c <__ftoa_engine+0x80>
    1a72:	36 0f       	add	r19, r22
    1a74:	e7 1e       	adc	r14, r23
    1a76:	f8 1e       	adc	r15, r24
    1a78:	49 1f       	adc	r20, r25
    1a7a:	51 1d       	adc	r21, r1
    1a7c:	66 0f       	add	r22, r22
    1a7e:	77 1f       	adc	r23, r23
    1a80:	88 1f       	adc	r24, r24
    1a82:	99 1f       	adc	r25, r25
    1a84:	06 94       	lsr	r0
    1a86:	a1 f7       	brne	.-24     	; 0x1a70 <__ftoa_engine+0x74>
    1a88:	05 90       	lpm	r0, Z+
    1a8a:	07 94       	ror	r0
    1a8c:	28 f4       	brcc	.+10     	; 0x1a98 <__ftoa_engine+0x9c>
    1a8e:	e7 0e       	add	r14, r23
    1a90:	f8 1e       	adc	r15, r24
    1a92:	49 1f       	adc	r20, r25
    1a94:	56 1f       	adc	r21, r22
    1a96:	c1 1d       	adc	r28, r1
    1a98:	77 0f       	add	r23, r23
    1a9a:	88 1f       	adc	r24, r24
    1a9c:	99 1f       	adc	r25, r25
    1a9e:	66 1f       	adc	r22, r22
    1aa0:	06 94       	lsr	r0
    1aa2:	a1 f7       	brne	.-24     	; 0x1a8c <__ftoa_engine+0x90>
    1aa4:	05 90       	lpm	r0, Z+
    1aa6:	07 94       	ror	r0
    1aa8:	28 f4       	brcc	.+10     	; 0x1ab4 <__ftoa_engine+0xb8>
    1aaa:	f8 0e       	add	r15, r24
    1aac:	49 1f       	adc	r20, r25
    1aae:	56 1f       	adc	r21, r22
    1ab0:	c7 1f       	adc	r28, r23
    1ab2:	d1 1d       	adc	r29, r1
    1ab4:	88 0f       	add	r24, r24
    1ab6:	99 1f       	adc	r25, r25
    1ab8:	66 1f       	adc	r22, r22
    1aba:	77 1f       	adc	r23, r23
    1abc:	06 94       	lsr	r0
    1abe:	a1 f7       	brne	.-24     	; 0x1aa8 <__ftoa_engine+0xac>
    1ac0:	05 90       	lpm	r0, Z+
    1ac2:	07 94       	ror	r0
    1ac4:	20 f4       	brcc	.+8      	; 0x1ace <__ftoa_engine+0xd2>
    1ac6:	49 0f       	add	r20, r25
    1ac8:	56 1f       	adc	r21, r22
    1aca:	c7 1f       	adc	r28, r23
    1acc:	d8 1f       	adc	r29, r24
    1ace:	99 0f       	add	r25, r25
    1ad0:	66 1f       	adc	r22, r22
    1ad2:	77 1f       	adc	r23, r23
    1ad4:	88 1f       	adc	r24, r24
    1ad6:	06 94       	lsr	r0
    1ad8:	a9 f7       	brne	.-22     	; 0x1ac4 <__ftoa_engine+0xc8>
    1ada:	84 91       	lpm	r24, Z
    1adc:	10 95       	com	r17
    1ade:	17 70       	andi	r17, 0x07	; 7
    1ae0:	41 f0       	breq	.+16     	; 0x1af2 <__ftoa_engine+0xf6>
    1ae2:	d6 95       	lsr	r29
    1ae4:	c7 95       	ror	r28
    1ae6:	57 95       	ror	r21
    1ae8:	47 95       	ror	r20
    1aea:	f7 94       	ror	r15
    1aec:	e7 94       	ror	r14
    1aee:	1a 95       	dec	r17
    1af0:	c1 f7       	brne	.-16     	; 0x1ae2 <__ftoa_engine+0xe6>
    1af2:	ea e6       	ldi	r30, 0x6A	; 106
    1af4:	f0 e0       	ldi	r31, 0x00	; 0
    1af6:	68 94       	set
    1af8:	15 90       	lpm	r1, Z+
    1afa:	15 91       	lpm	r17, Z+
    1afc:	35 91       	lpm	r19, Z+
    1afe:	65 91       	lpm	r22, Z+
    1b00:	95 91       	lpm	r25, Z+
    1b02:	05 90       	lpm	r0, Z+
    1b04:	7f e2       	ldi	r23, 0x2F	; 47
    1b06:	73 95       	inc	r23
    1b08:	e1 18       	sub	r14, r1
    1b0a:	f1 0a       	sbc	r15, r17
    1b0c:	43 0b       	sbc	r20, r19
    1b0e:	56 0b       	sbc	r21, r22
    1b10:	c9 0b       	sbc	r28, r25
    1b12:	d0 09       	sbc	r29, r0
    1b14:	c0 f7       	brcc	.-16     	; 0x1b06 <__ftoa_engine+0x10a>
    1b16:	e1 0c       	add	r14, r1
    1b18:	f1 1e       	adc	r15, r17
    1b1a:	43 1f       	adc	r20, r19
    1b1c:	56 1f       	adc	r21, r22
    1b1e:	c9 1f       	adc	r28, r25
    1b20:	d0 1d       	adc	r29, r0
    1b22:	7e f4       	brtc	.+30     	; 0x1b42 <__ftoa_engine+0x146>
    1b24:	70 33       	cpi	r23, 0x30	; 48
    1b26:	11 f4       	brne	.+4      	; 0x1b2c <__ftoa_engine+0x130>
    1b28:	8a 95       	dec	r24
    1b2a:	e6 cf       	rjmp	.-52     	; 0x1af8 <__ftoa_engine+0xfc>
    1b2c:	e8 94       	clt
    1b2e:	01 50       	subi	r16, 0x01	; 1
    1b30:	30 f0       	brcs	.+12     	; 0x1b3e <__ftoa_engine+0x142>
    1b32:	08 0f       	add	r16, r24
    1b34:	0a f4       	brpl	.+2      	; 0x1b38 <__ftoa_engine+0x13c>
    1b36:	00 27       	eor	r16, r16
    1b38:	02 17       	cp	r16, r18
    1b3a:	08 f4       	brcc	.+2      	; 0x1b3e <__ftoa_engine+0x142>
    1b3c:	20 2f       	mov	r18, r16
    1b3e:	23 95       	inc	r18
    1b40:	02 2f       	mov	r16, r18
    1b42:	7a 33       	cpi	r23, 0x3A	; 58
    1b44:	28 f0       	brcs	.+10     	; 0x1b50 <__ftoa_engine+0x154>
    1b46:	79 e3       	ldi	r23, 0x39	; 57
    1b48:	7d 93       	st	X+, r23
    1b4a:	2a 95       	dec	r18
    1b4c:	e9 f7       	brne	.-6      	; 0x1b48 <__ftoa_engine+0x14c>
    1b4e:	10 c0       	rjmp	.+32     	; 0x1b70 <__ftoa_engine+0x174>
    1b50:	7d 93       	st	X+, r23
    1b52:	2a 95       	dec	r18
    1b54:	89 f6       	brne	.-94     	; 0x1af8 <__ftoa_engine+0xfc>
    1b56:	06 94       	lsr	r0
    1b58:	97 95       	ror	r25
    1b5a:	67 95       	ror	r22
    1b5c:	37 95       	ror	r19
    1b5e:	17 95       	ror	r17
    1b60:	17 94       	ror	r1
    1b62:	e1 18       	sub	r14, r1
    1b64:	f1 0a       	sbc	r15, r17
    1b66:	43 0b       	sbc	r20, r19
    1b68:	56 0b       	sbc	r21, r22
    1b6a:	c9 0b       	sbc	r28, r25
    1b6c:	d0 09       	sbc	r29, r0
    1b6e:	98 f0       	brcs	.+38     	; 0x1b96 <__ftoa_engine+0x19a>
    1b70:	23 95       	inc	r18
    1b72:	7e 91       	ld	r23, -X
    1b74:	73 95       	inc	r23
    1b76:	7a 33       	cpi	r23, 0x3A	; 58
    1b78:	08 f0       	brcs	.+2      	; 0x1b7c <__ftoa_engine+0x180>
    1b7a:	70 e3       	ldi	r23, 0x30	; 48
    1b7c:	7c 93       	st	X, r23
    1b7e:	20 13       	cpse	r18, r16
    1b80:	b8 f7       	brcc	.-18     	; 0x1b70 <__ftoa_engine+0x174>
    1b82:	7e 91       	ld	r23, -X
    1b84:	70 61       	ori	r23, 0x10	; 16
    1b86:	7d 93       	st	X+, r23
    1b88:	30 f0       	brcs	.+12     	; 0x1b96 <__ftoa_engine+0x19a>
    1b8a:	83 95       	inc	r24
    1b8c:	71 e3       	ldi	r23, 0x31	; 49
    1b8e:	7d 93       	st	X+, r23
    1b90:	70 e3       	ldi	r23, 0x30	; 48
    1b92:	2a 95       	dec	r18
    1b94:	e1 f7       	brne	.-8      	; 0x1b8e <__ftoa_engine+0x192>
    1b96:	11 24       	eor	r1, r1
    1b98:	ef 90       	pop	r14
    1b9a:	ff 90       	pop	r15
    1b9c:	0f 91       	pop	r16
    1b9e:	1f 91       	pop	r17
    1ba0:	cf 91       	pop	r28
    1ba2:	df 91       	pop	r29
    1ba4:	99 27       	eor	r25, r25
    1ba6:	87 fd       	sbrc	r24, 7
    1ba8:	90 95       	com	r25
    1baa:	08 95       	ret

00001bac <strnlen_P>:
    1bac:	fc 01       	movw	r30, r24
    1bae:	05 90       	lpm	r0, Z+
    1bb0:	61 50       	subi	r22, 0x01	; 1
    1bb2:	70 40       	sbci	r23, 0x00	; 0
    1bb4:	01 10       	cpse	r0, r1
    1bb6:	d8 f7       	brcc	.-10     	; 0x1bae <strnlen_P+0x2>
    1bb8:	80 95       	com	r24
    1bba:	90 95       	com	r25
    1bbc:	8e 0f       	add	r24, r30
    1bbe:	9f 1f       	adc	r25, r31
    1bc0:	08 95       	ret

00001bc2 <strnlen>:
    1bc2:	fc 01       	movw	r30, r24
    1bc4:	61 50       	subi	r22, 0x01	; 1
    1bc6:	70 40       	sbci	r23, 0x00	; 0
    1bc8:	01 90       	ld	r0, Z+
    1bca:	01 10       	cpse	r0, r1
    1bcc:	d8 f7       	brcc	.-10     	; 0x1bc4 <strnlen+0x2>
    1bce:	80 95       	com	r24
    1bd0:	90 95       	com	r25
    1bd2:	8e 0f       	add	r24, r30
    1bd4:	9f 1f       	adc	r25, r31
    1bd6:	08 95       	ret

00001bd8 <fputc>:
    1bd8:	0f 93       	push	r16
    1bda:	1f 93       	push	r17
    1bdc:	cf 93       	push	r28
    1bde:	df 93       	push	r29
    1be0:	18 2f       	mov	r17, r24
    1be2:	09 2f       	mov	r16, r25
    1be4:	eb 01       	movw	r28, r22
    1be6:	8b 81       	ldd	r24, Y+3	; 0x03
    1be8:	81 fd       	sbrc	r24, 1
    1bea:	03 c0       	rjmp	.+6      	; 0x1bf2 <fputc+0x1a>
    1bec:	8f ef       	ldi	r24, 0xFF	; 255
    1bee:	9f ef       	ldi	r25, 0xFF	; 255
    1bf0:	20 c0       	rjmp	.+64     	; 0x1c32 <fputc+0x5a>
    1bf2:	82 ff       	sbrs	r24, 2
    1bf4:	10 c0       	rjmp	.+32     	; 0x1c16 <fputc+0x3e>
    1bf6:	4e 81       	ldd	r20, Y+6	; 0x06
    1bf8:	5f 81       	ldd	r21, Y+7	; 0x07
    1bfa:	2c 81       	ldd	r18, Y+4	; 0x04
    1bfc:	3d 81       	ldd	r19, Y+5	; 0x05
    1bfe:	42 17       	cp	r20, r18
    1c00:	53 07       	cpc	r21, r19
    1c02:	7c f4       	brge	.+30     	; 0x1c22 <fputc+0x4a>
    1c04:	e8 81       	ld	r30, Y
    1c06:	f9 81       	ldd	r31, Y+1	; 0x01
    1c08:	9f 01       	movw	r18, r30
    1c0a:	2f 5f       	subi	r18, 0xFF	; 255
    1c0c:	3f 4f       	sbci	r19, 0xFF	; 255
    1c0e:	39 83       	std	Y+1, r19	; 0x01
    1c10:	28 83       	st	Y, r18
    1c12:	10 83       	st	Z, r17
    1c14:	06 c0       	rjmp	.+12     	; 0x1c22 <fputc+0x4a>
    1c16:	e8 85       	ldd	r30, Y+8	; 0x08
    1c18:	f9 85       	ldd	r31, Y+9	; 0x09
    1c1a:	81 2f       	mov	r24, r17
    1c1c:	09 95       	icall
    1c1e:	89 2b       	or	r24, r25
    1c20:	29 f7       	brne	.-54     	; 0x1bec <fputc+0x14>
    1c22:	2e 81       	ldd	r18, Y+6	; 0x06
    1c24:	3f 81       	ldd	r19, Y+7	; 0x07
    1c26:	2f 5f       	subi	r18, 0xFF	; 255
    1c28:	3f 4f       	sbci	r19, 0xFF	; 255
    1c2a:	3f 83       	std	Y+7, r19	; 0x07
    1c2c:	2e 83       	std	Y+6, r18	; 0x06
    1c2e:	81 2f       	mov	r24, r17
    1c30:	90 2f       	mov	r25, r16
    1c32:	df 91       	pop	r29
    1c34:	cf 91       	pop	r28
    1c36:	1f 91       	pop	r17
    1c38:	0f 91       	pop	r16
    1c3a:	08 95       	ret

00001c3c <printf>:
    1c3c:	a0 e0       	ldi	r26, 0x00	; 0
    1c3e:	b0 e0       	ldi	r27, 0x00	; 0
    1c40:	e3 e2       	ldi	r30, 0x23	; 35
    1c42:	fe e0       	ldi	r31, 0x0E	; 14
    1c44:	b4 ce       	rjmp	.-664    	; 0x19ae <__prologue_saves__+0x20>
    1c46:	fe 01       	movw	r30, r28
    1c48:	35 96       	adiw	r30, 0x05	; 5
    1c4a:	61 91       	ld	r22, Z+
    1c4c:	71 91       	ld	r23, Z+
    1c4e:	af 01       	movw	r20, r30
    1c50:	80 91 9e 01 	lds	r24, 0x019E
    1c54:	90 91 9f 01 	lds	r25, 0x019F
    1c58:	3e db       	rcall	.-2436   	; 0x12d6 <vfprintf>
    1c5a:	e2 e0       	ldi	r30, 0x02	; 2
    1c5c:	c4 ce       	rjmp	.-632    	; 0x19e6 <__epilogue_restores__+0x20>

00001c5e <__ultoa_invert>:
    1c5e:	fa 01       	movw	r30, r20
    1c60:	aa 27       	eor	r26, r26
    1c62:	28 30       	cpi	r18, 0x08	; 8
    1c64:	51 f1       	breq	.+84     	; 0x1cba <__ultoa_invert+0x5c>
    1c66:	20 31       	cpi	r18, 0x10	; 16
    1c68:	81 f1       	breq	.+96     	; 0x1cca <__ultoa_invert+0x6c>
    1c6a:	e8 94       	clt
    1c6c:	6f 93       	push	r22
    1c6e:	6e 7f       	andi	r22, 0xFE	; 254
    1c70:	6e 5f       	subi	r22, 0xFE	; 254
    1c72:	7f 4f       	sbci	r23, 0xFF	; 255
    1c74:	8f 4f       	sbci	r24, 0xFF	; 255
    1c76:	9f 4f       	sbci	r25, 0xFF	; 255
    1c78:	af 4f       	sbci	r26, 0xFF	; 255
    1c7a:	b1 e0       	ldi	r27, 0x01	; 1
    1c7c:	3e d0       	rcall	.+124    	; 0x1cfa <__ultoa_invert+0x9c>
    1c7e:	b4 e0       	ldi	r27, 0x04	; 4
    1c80:	3c d0       	rcall	.+120    	; 0x1cfa <__ultoa_invert+0x9c>
    1c82:	67 0f       	add	r22, r23
    1c84:	78 1f       	adc	r23, r24
    1c86:	89 1f       	adc	r24, r25
    1c88:	9a 1f       	adc	r25, r26
    1c8a:	a1 1d       	adc	r26, r1
    1c8c:	68 0f       	add	r22, r24
    1c8e:	79 1f       	adc	r23, r25
    1c90:	8a 1f       	adc	r24, r26
    1c92:	91 1d       	adc	r25, r1
    1c94:	a1 1d       	adc	r26, r1
    1c96:	6a 0f       	add	r22, r26
    1c98:	71 1d       	adc	r23, r1
    1c9a:	81 1d       	adc	r24, r1
    1c9c:	91 1d       	adc	r25, r1
    1c9e:	a1 1d       	adc	r26, r1
    1ca0:	20 d0       	rcall	.+64     	; 0x1ce2 <__ultoa_invert+0x84>
    1ca2:	09 f4       	brne	.+2      	; 0x1ca6 <__ultoa_invert+0x48>
    1ca4:	68 94       	set
    1ca6:	3f 91       	pop	r19
    1ca8:	2a e0       	ldi	r18, 0x0A	; 10
    1caa:	26 9f       	mul	r18, r22
    1cac:	11 24       	eor	r1, r1
    1cae:	30 19       	sub	r19, r0
    1cb0:	30 5d       	subi	r19, 0xD0	; 208
    1cb2:	31 93       	st	Z+, r19
    1cb4:	de f6       	brtc	.-74     	; 0x1c6c <__ultoa_invert+0xe>
    1cb6:	cf 01       	movw	r24, r30
    1cb8:	08 95       	ret
    1cba:	46 2f       	mov	r20, r22
    1cbc:	47 70       	andi	r20, 0x07	; 7
    1cbe:	40 5d       	subi	r20, 0xD0	; 208
    1cc0:	41 93       	st	Z+, r20
    1cc2:	b3 e0       	ldi	r27, 0x03	; 3
    1cc4:	0f d0       	rcall	.+30     	; 0x1ce4 <__ultoa_invert+0x86>
    1cc6:	c9 f7       	brne	.-14     	; 0x1cba <__ultoa_invert+0x5c>
    1cc8:	f6 cf       	rjmp	.-20     	; 0x1cb6 <__ultoa_invert+0x58>
    1cca:	46 2f       	mov	r20, r22
    1ccc:	4f 70       	andi	r20, 0x0F	; 15
    1cce:	40 5d       	subi	r20, 0xD0	; 208
    1cd0:	4a 33       	cpi	r20, 0x3A	; 58
    1cd2:	18 f0       	brcs	.+6      	; 0x1cda <__ultoa_invert+0x7c>
    1cd4:	49 5d       	subi	r20, 0xD9	; 217
    1cd6:	31 fd       	sbrc	r19, 1
    1cd8:	40 52       	subi	r20, 0x20	; 32
    1cda:	41 93       	st	Z+, r20
    1cdc:	02 d0       	rcall	.+4      	; 0x1ce2 <__ultoa_invert+0x84>
    1cde:	a9 f7       	brne	.-22     	; 0x1cca <__ultoa_invert+0x6c>
    1ce0:	ea cf       	rjmp	.-44     	; 0x1cb6 <__ultoa_invert+0x58>
    1ce2:	b4 e0       	ldi	r27, 0x04	; 4
    1ce4:	a6 95       	lsr	r26
    1ce6:	97 95       	ror	r25
    1ce8:	87 95       	ror	r24
    1cea:	77 95       	ror	r23
    1cec:	67 95       	ror	r22
    1cee:	ba 95       	dec	r27
    1cf0:	c9 f7       	brne	.-14     	; 0x1ce4 <__ultoa_invert+0x86>
    1cf2:	00 97       	sbiw	r24, 0x00	; 0
    1cf4:	61 05       	cpc	r22, r1
    1cf6:	71 05       	cpc	r23, r1
    1cf8:	08 95       	ret
    1cfa:	9b 01       	movw	r18, r22
    1cfc:	ac 01       	movw	r20, r24
    1cfe:	0a 2e       	mov	r0, r26
    1d00:	06 94       	lsr	r0
    1d02:	57 95       	ror	r21
    1d04:	47 95       	ror	r20
    1d06:	37 95       	ror	r19
    1d08:	27 95       	ror	r18
    1d0a:	ba 95       	dec	r27
    1d0c:	c9 f7       	brne	.-14     	; 0x1d00 <__ultoa_invert+0xa2>
    1d0e:	62 0f       	add	r22, r18
    1d10:	73 1f       	adc	r23, r19
    1d12:	84 1f       	adc	r24, r20
    1d14:	95 1f       	adc	r25, r21
    1d16:	a0 1d       	adc	r26, r0
    1d18:	08 95       	ret

00001d1a <_exit>:
    1d1a:	f8 94       	cli

00001d1c <__stop_program>:
    1d1c:	ff cf       	rjmp	.-2      	; 0x1d1c <__stop_program>
